Archive member included because of file (symbol)

libumouse.a(abort.o)          ./src/main.o (abort)
libumouse.a(cxa_atexit.o)     ./src/main.o (__cxa_atexit)
libumouse.a(exit.o)           libumouse.a(abort.o) (_exit)
libumouse.a(memmove.o)        ./src/main.o (memmove)
libumouse.a(vsprintf.o)       ./src/peripheral/uart.o (vsprintf)
libumouse.a(wf_sqrt.o)        ./src/main.o (sqrtf)
libumouse.a(__atexit.o)       libumouse.a(cxa_atexit.o) (__register_exitproc)
libumouse.a(ef_sqrt.o)        libumouse.a(wf_sqrt.o) (__ieee754_sqrtf)
libumouse.a(errno.o)          libumouse.a(wf_sqrt.o) (__errno)
libumouse.a(impure.o)         libumouse.a(__atexit.o) (_global_impure_ptr)
libumouse.a(s_lib_ver.o)      libumouse.a(wf_sqrt.o) (__fdlib_version)
libumouse.a(s_matherr.o)      libumouse.a(wf_sqrt.o) (matherr)
libumouse.a(sf_fpclassify.o)  libumouse.a(wf_sqrt.o) (__fpclassifyf)
libumouse.a(svfprintf.o)      libumouse.a(vsprintf.o) (_svfprintf_r)
libumouse.a(dtoa.o)           libumouse.a(svfprintf.o) (_dtoa_r)
libumouse.a(locale.o)         libumouse.a(svfprintf.o) (_localeconv_r)
libumouse.a(mallocr.o)        libumouse.a(svfprintf.o) (_malloc_r)
libumouse.a(memchr.o)         libumouse.a(svfprintf.o) (memchr)
libumouse.a(memcpy.o)         libumouse.a(dtoa.o) (memcpy)
libumouse.a(memset.o)         libumouse.a(mallocr.o) (memset)
libumouse.a(mlock.o)          libumouse.a(mallocr.o) (__malloc_lock)
libumouse.a(mprec.o)          libumouse.a(dtoa.o) (_Balloc)
libumouse.a(sbrkr.o)          libumouse.a(mallocr.o) (_sbrk_r)
libumouse.a(strcmp.o)         libumouse.a(locale.o) (strcmp)
libumouse.a(strlen.o)         libumouse.a(svfprintf.o) (strlen)
libumouse.a(svfiprintf.o)     libumouse.a(svfprintf.o) (__ssputs_r)
libumouse.a(fiprintf.o)       libumouse.a(mallocr.o) (fiprintf)
libumouse.a(reent.o)          libumouse.a(sbrkr.o) (errno)
libumouse.a(sbrk.o)           libumouse.a(sbrkr.o) (sbrk)
libumouse.a(vfiprintf.o)      libumouse.a(fiprintf.o) (_vfiprintf_r)
libumouse.a(wsetup.o)         libumouse.a(vfiprintf.o) (__swsetup_r)
libumouse.a(findfp.o)         libumouse.a(vfiprintf.o) (__sinit)
libumouse.a(fputc.o)          libumouse.a(vfiprintf.o) (_fputc_r)
libumouse.a(fvwrite.o)        libumouse.a(vfiprintf.o) (__sfvwrite_r)
libumouse.a(fwalk.o)          libumouse.a(findfp.o) (_fwalk)
libumouse.a(makebuf.o)        libumouse.a(wsetup.o) (__smakebuf_r)
libumouse.a(putc.o)           libumouse.a(fputc.o) (_putc_r)
libumouse.a(stdio.o)          libumouse.a(findfp.o) (__sread)
libumouse.a(wbuf.o)           libumouse.a(putc.o) (__swbuf_r)
libumouse.a(writer.o)         libumouse.a(stdio.o) (_write_r)
libumouse.a(closer.o)         libumouse.a(stdio.o) (_close_r)
libumouse.a(fclose.o)         libumouse.a(findfp.o) (_fclose_r)
libumouse.a(fflush.o)         libumouse.a(fvwrite.o) (_fflush_r)
libumouse.a(fstatr.o)         libumouse.a(makebuf.o) (_fstat_r)
libumouse.a(isattyr.o)        libumouse.a(makebuf.o) (_isatty_r)
libumouse.a(lseekr.o)         libumouse.a(stdio.o) (_lseek_r)
libumouse.a(readr.o)          libumouse.a(stdio.o) (_read_r)
libumouse.a(write.o)          libumouse.a(writer.o) (write)
libumouse.a(close.o)          libumouse.a(closer.o) (close)
libumouse.a(fstat.o)          libumouse.a(fstatr.o) (fstat)
libumouse.a(isatty.o)         libumouse.a(isattyr.o) (isatty)
libumouse.a(lseek.o)          libumouse.a(lseekr.o) (lseek)
libumouse.a(read.o)           libumouse.a(readr.o) (read)
C:\PROGRA~2\GCCFOR~2.201\rx-elf\rx-elf/lib/gcc/rx-elf/4.8.0.201602-GNURX\libgcc.a(_fixsfdi.o)
                              ./src/umouse_object/sound.o (__fixsfdi)
C:\PROGRA~2\GCCFOR~2.201\rx-elf\rx-elf/lib/gcc/rx-elf/4.8.0.201602-GNURX\libgcc.a(_fixunssfdi.o)
                              C:\PROGRA~2\GCCFOR~2.201\rx-elf\rx-elf/lib/gcc/rx-elf/4.8.0.201602-GNURX\libgcc.a(_fixsfdi.o) (__fixunssfdi)
C:\PROGRA~2\GCCFOR~2.201\rx-elf\rx-elf/lib/gcc/rx-elf/4.8.0.201602-GNURX\libgcc.a(_floatdisf.o)
                              ./src/umouse_object/sound.o (__floatdisf)
C:\PROGRA~2\GCCFOR~2.201\rx-elf\rx-elf/lib/gcc/rx-elf/4.8.0.201602-GNURX\libgcc.a(_umoddi3.o)
                              ./src/main.o (__umoddi3)
C:\PROGRA~2\GCCFOR~2.201\rx-elf\rx-elf/lib/gcc/rx-elf/4.8.0.201602-GNURX\libgcc.a(unwind-sjlj.o)
                              ./src/main.o (_Unwind_SjLj_Register)
C:\PROGRA~2\GCCFOR~2.201\rx-elf\rx-elf/lib/gcc/rx-elf/4.8.0.201602-GNURX\libgcc.a(_clz.o)
                              C:\PROGRA~2\GCCFOR~2.201\rx-elf\rx-elf/lib/gcc/rx-elf/4.8.0.201602-GNURX\libgcc.a(_floatdisf.o) (__clz_tab)
C:\PROGRA~2\GCCFOR~2.201\rx-elf\rx-elf/rx-elf/lib\libstdc++.a(eh_throw.o)
                              ./src/main.o (__cxa_rethrow)
C:\PROGRA~2\GCCFOR~2.201\rx-elf\rx-elf/rx-elf/lib\libstdc++.a(guard.o)
                              ./src/main.o (__cxa_guard_acquire)
C:\PROGRA~2\GCCFOR~2.201\rx-elf\rx-elf/rx-elf/lib\libstdc++.a(del_op.o)
                              ./src/main.o (operator delete(void*))
C:\PROGRA~2\GCCFOR~2.201\rx-elf\rx-elf/rx-elf/lib\libstdc++.a(eh_personality.o)
                              ./src/main.o (__gxx_personality_sj0)
C:\PROGRA~2\GCCFOR~2.201\rx-elf\rx-elf/rx-elf/lib\libstdc++.a(eh_term_handler.o)
                              C:\PROGRA~2\GCCFOR~2.201\rx-elf\rx-elf/rx-elf/lib\libstdc++.a(eh_throw.o) (__cxxabiv1::__terminate_handler)
C:\PROGRA~2\GCCFOR~2.201\rx-elf\rx-elf/rx-elf/lib\libstdc++.a(guard_error.o)
                              C:\PROGRA~2\GCCFOR~2.201\rx-elf\rx-elf/rx-elf/lib\libstdc++.a(guard.o) (vtable for __gnu_cxx::recursive_init_error)
C:\PROGRA~2\GCCFOR~2.201\rx-elf\rx-elf/rx-elf/lib\libstdc++.a(si_class_type_info.o)
                              ./src/mode/mode_B.o (vtable for __cxxabiv1::__si_class_type_info)
C:\PROGRA~2\GCCFOR~2.201\rx-elf\rx-elf/rx-elf/lib\libstdc++.a(vterminate.o)
                              C:\PROGRA~2\GCCFOR~2.201\rx-elf\rx-elf/rx-elf/lib\libstdc++.a(eh_term_handler.o) (__gnu_cxx::__verbose_terminate_handler())
C:\PROGRA~2\GCCFOR~2.201\rx-elf\rx-elf/rx-elf/lib\libstdc++.a(eh_call.o)
                              C:\PROGRA~2\GCCFOR~2.201\rx-elf\rx-elf/rx-elf/lib\libstdc++.a(eh_personality.o) (__cxa_call_terminate)
C:\PROGRA~2\GCCFOR~2.201\rx-elf\rx-elf/rx-elf/lib\libstdc++.a(eh_unex_handler.o)
                              C:\PROGRA~2\GCCFOR~2.201\rx-elf\rx-elf/rx-elf/lib\libstdc++.a(eh_throw.o) (__cxxabiv1::__unexpected_handler)
C:\PROGRA~2\GCCFOR~2.201\rx-elf\rx-elf/rx-elf/lib\libstdc++.a(eh_catch.o)
                              ./src/main.o (__cxa_begin_catch)
C:\PROGRA~2\GCCFOR~2.201\rx-elf\rx-elf/rx-elf/lib\libstdc++.a(pure.o)
                              ./src/mode/mode_B.o (__cxa_pure_virtual)
C:\PROGRA~2\GCCFOR~2.201\rx-elf\rx-elf/rx-elf/lib\libstdc++.a(eh_exception.o)
                              C:\PROGRA~2\GCCFOR~2.201\rx-elf\rx-elf/rx-elf/lib\libstdc++.a(guard_error.o) (std::exception::~exception())
C:\PROGRA~2\GCCFOR~2.201\rx-elf\rx-elf/rx-elf/lib\libstdc++.a(cp-demangle.o)
                              C:\PROGRA~2\GCCFOR~2.201\rx-elf\rx-elf/rx-elf/lib\libstdc++.a(vterminate.o) (__cxa_demangle)
C:\PROGRA~2\GCCFOR~2.201\rx-elf\rx-elf/rx-elf/lib\libstdc++.a(new_op.o)
                              ./src/main.o (operator new(unsigned long))
C:\PROGRA~2\GCCFOR~2.201\rx-elf\rx-elf/rx-elf/lib\libstdc++.a(eh_terminate.o)
                              C:\PROGRA~2\GCCFOR~2.201\rx-elf\rx-elf/rx-elf/lib\libstdc++.a(eh_throw.o) (__cxxabiv1::__terminate(void (*)()))
C:\PROGRA~2\GCCFOR~2.201\rx-elf\rx-elf/rx-elf/lib\libstdc++.a(eh_alloc.o)
                              C:\PROGRA~2\GCCFOR~2.201\rx-elf\rx-elf/rx-elf/lib\libstdc++.a(guard.o) (__cxa_allocate_exception)
C:\PROGRA~2\GCCFOR~2.201\rx-elf\rx-elf/rx-elf/lib\libstdc++.a(class_type_info.o)
                              C:\PROGRA~2\GCCFOR~2.201\rx-elf\rx-elf/rx-elf/lib\libstdc++.a(si_class_type_info.o) (__cxxabiv1::__class_type_info::__do_upcast(__cxxabiv1::__class_type_info const*, void**) const)
C:\PROGRA~2\GCCFOR~2.201\rx-elf\rx-elf/rx-elf/lib\libstdc++.a(functexcept.o)
                              ./src/main.o (std::__throw_bad_alloc())
C:\PROGRA~2\GCCFOR~2.201\rx-elf\rx-elf/rx-elf/lib\libstdc++.a(functional.o)
                              C:\PROGRA~2\GCCFOR~2.201\rx-elf\rx-elf/rx-elf/lib\libstdc++.a(functexcept.o) (vtable for std::bad_function_call)
C:\PROGRA~2\GCCFOR~2.201\rx-elf\rx-elf/rx-elf/lib\libstdc++.a(eh_globals.o)
                              C:\PROGRA~2\GCCFOR~2.201\rx-elf\rx-elf/rx-elf/lib\libstdc++.a(eh_personality.o) (__cxa_get_globals_fast)
C:\PROGRA~2\GCCFOR~2.201\rx-elf\rx-elf/rx-elf/lib\libstdc++.a(bad_typeid.o)
                              C:\PROGRA~2\GCCFOR~2.201\rx-elf\rx-elf/rx-elf/lib\libstdc++.a(functexcept.o) (vtable for std::bad_typeid)
C:\PROGRA~2\GCCFOR~2.201\rx-elf\rx-elf/rx-elf/lib\libstdc++.a(bad_alloc.o)
                              C:\PROGRA~2\GCCFOR~2.201\rx-elf\rx-elf/rx-elf/lib\libstdc++.a(new_op.o) (vtable for std::bad_alloc)
C:\PROGRA~2\GCCFOR~2.201\rx-elf\rx-elf/rx-elf/lib\libstdc++.a(eh_type.o)
                              C:\PROGRA~2\GCCFOR~2.201\rx-elf\rx-elf/rx-elf/lib\libstdc++.a(vterminate.o) (__cxa_current_exception_type)
C:\PROGRA~2\GCCFOR~2.201\rx-elf\rx-elf/rx-elf/lib\libstdc++.a(bad_cast.o)
                              C:\PROGRA~2\GCCFOR~2.201\rx-elf\rx-elf/rx-elf/lib\libstdc++.a(functexcept.o) (vtable for std::bad_cast)
C:\PROGRA~2\GCCFOR~2.201\rx-elf\rx-elf/rx-elf/lib\libstdc++.a(tinfo.o)
                              C:\PROGRA~2\GCCFOR~2.201\rx-elf\rx-elf/rx-elf/lib\libstdc++.a(class_type_info.o) (std::type_info::~type_info())
C:\PROGRA~2\GCCFOR~2.201\rx-elf\rx-elf/rx-elf/lib\libstdc++.a(new_handler.o)
                              C:\PROGRA~2\GCCFOR~2.201\rx-elf\rx-elf/rx-elf/lib\libstdc++.a(new_op.o) (__new_handler)
C:\PROGRA~2\GCCFOR~2.201\rx-elf\rx-elf/rx-elf/lib\libstdc++.a(stdexcept.o)
                              C:\PROGRA~2\GCCFOR~2.201\rx-elf\rx-elf/rx-elf/lib\libstdc++.a(functexcept.o) (std::logic_error::~logic_error())
C:\PROGRA~2\GCCFOR~2.201\rx-elf\rx-elf/rx-elf/lib\libstdc++.a(ios_failure.o)
                              C:\PROGRA~2\GCCFOR~2.201\rx-elf\rx-elf/rx-elf/lib\libstdc++.a(functexcept.o) (std::ios_base::failure::~failure())
C:\PROGRA~2\GCCFOR~2.201\rx-elf\rx-elf/rx-elf/lib\libstdc++.a(system_error.o)
                              C:\PROGRA~2\GCCFOR~2.201\rx-elf\rx-elf/rx-elf/lib\libstdc++.a(functexcept.o) (vtable for std::system_error)
C:\PROGRA~2\GCCFOR~2.201\rx-elf\rx-elf/rx-elf/lib\libstdc++.a(future.o)
                              C:\PROGRA~2\GCCFOR~2.201\rx-elf\rx-elf/rx-elf/lib\libstdc++.a(functexcept.o) (vtable for std::future_error)
C:\PROGRA~2\GCCFOR~2.201\rx-elf\rx-elf/rx-elf/lib\libstdc++.a(string-inst.o)
                              C:\PROGRA~2\GCCFOR~2.201\rx-elf\rx-elf/rx-elf/lib\libstdc++.a(stdexcept.o) (std::string::_Rep::_S_empty_rep_storage)
C:\PROGRA~2\GCCFOR~2.201\rx-elf\rx-elf/rx-elf/lib\libstdc++.a(regex.o)
                              C:\PROGRA~2\GCCFOR~2.201\rx-elf\rx-elf/rx-elf/lib\libstdc++.a(functexcept.o) (std::regex_error::~regex_error())
C:\Users\ryota\e2_studio\workspace\umouse\HardwareDebug\libumouse.a(fputs.o)
                              C:\PROGRA~2\GCCFOR~2.201\rx-elf\rx-elf/rx-elf/lib\libstdc++.a(vterminate.o) (fputs)
C:\Users\ryota\e2_studio\workspace\umouse\HardwareDebug\libumouse.a(fwrite.o)
                              C:\PROGRA~2\GCCFOR~2.201\rx-elf\rx-elf/rx-elf/lib\libstdc++.a(vterminate.o) (fwrite)
C:\Users\ryota\e2_studio\workspace\umouse\HardwareDebug\libumouse.a(malloc.o)
                              C:\PROGRA~2\GCCFOR~2.201\rx-elf\rx-elf/rx-elf/lib\libstdc++.a(new_op.o) (malloc)
C:\Users\ryota\e2_studio\workspace\umouse\HardwareDebug\libumouse.a(memcmp.o)
                              C:\PROGRA~2\GCCFOR~2.201\rx-elf\rx-elf/rx-elf/lib\libstdc++.a(cp-demangle.o) (memcmp)
C:\Users\ryota\e2_studio\workspace\umouse\HardwareDebug\libumouse.a(realloc.o)
                              C:\PROGRA~2\GCCFOR~2.201\rx-elf\rx-elf/rx-elf/lib\libstdc++.a(cp-demangle.o) (realloc)
C:\Users\ryota\e2_studio\workspace\umouse\HardwareDebug\libumouse.a(sprintf.o)
                              C:\PROGRA~2\GCCFOR~2.201\rx-elf\rx-elf/rx-elf/lib\libstdc++.a(cp-demangle.o) (sprintf)
C:\Users\ryota\e2_studio\workspace\umouse\HardwareDebug\libumouse.a(strerror.o)
                              C:\PROGRA~2\GCCFOR~2.201\rx-elf\rx-elf/rx-elf/lib\libstdc++.a(system_error.o) (strerror)
C:\Users\ryota\e2_studio\workspace\umouse\HardwareDebug\libumouse.a(u_strerr.o)
                              C:\Users\ryota\e2_studio\workspace\umouse\HardwareDebug\libumouse.a(strerror.o) (_user_strerror)

Allocating common symbols
Common symbol       size              file

errno               0x4               libumouse.a(reent.o)

Discarded input sections

 .group         0x00000000        0x8 ./src/main.o
 .group         0x00000000        0x8 ./src/main.o
 .group         0x00000000        0x8 ./src/main.o
 .group         0x00000000        0x8 ./src/main.o
 .group         0x00000000        0x8 ./src/main.o
 .group         0x00000000        0xc ./src/main.o
 .group         0x00000000        0x8 ./src/main.o
 .group         0x00000000        0x8 ./src/main.o
 .group         0x00000000        0xc ./src/main.o
 .group         0x00000000        0x8 ./src/main.o
 .group         0x00000000        0xc ./src/main.o
 .group         0x00000000        0x8 ./src/main.o
 .group         0x00000000        0x8 ./src/main.o
 .group         0x00000000        0x8 ./src/main.o
 .group         0x00000000        0x8 ./src/main.o
 .group         0x00000000        0x8 ./src/main.o
 .group         0x00000000        0x8 ./src/main.o
 .group         0x00000000        0x8 ./src/main.o
 .group         0x00000000        0x8 ./src/main.o
 .group         0x00000000        0x8 ./src/main.o
 .group         0x00000000        0x8 ./src/main.o
 .group         0x00000000        0x8 ./src/main.o
 .group         0x00000000        0x8 ./src/main.o
 .group         0x00000000        0x8 ./src/main.o
 .group         0x00000000        0x8 ./src/main.o
 .group         0x00000000        0x8 ./src/main.o
 .group         0x00000000        0x8 ./src/main.o
 .group         0x00000000        0x8 ./src/main.o
 .group         0x00000000        0x8 ./src/main.o
 .group         0x00000000        0x8 ./src/main.o
 .group         0x00000000        0x8 ./src/main.o
 .group         0x00000000        0x8 ./src/main.o
 .group         0x00000000        0x8 ./src/mode/mode.o
 .group         0x00000000        0x8 ./src/mode/mode.o
 .group         0x00000000        0xc ./src/mode/mode.o
 .group         0x00000000        0x8 ./src/mode/mode.o
 .group         0x00000000        0x8 ./src/mode/mode.o
 .group         0x00000000        0x8 ./src/mode/mode.o
 .group         0x00000000        0x8 ./src/mode/mode.o
 .group         0x00000000        0x8 ./src/mode/mode.o
 .group         0x00000000        0x8 ./src/mode/mode.o
 .text._ZN6TactSwD2Ev
                0x00000000        0x1 ./src/mode/mode.o
 .text._ZN7GamepadD2Ev
                0x00000000        0x1 ./src/mode/mode.o
 .text._ZN5FcLedD2Ev
                0x00000000       0x41 ./src/mode/mode.o
 .gcc_except_table._ZN5FcLedD2Ev
                0x00000000        0x4 ./src/mode/mode.o
 .bss._ZZN7Gamepad11getInstanceEvE8instance
                0x00000000       0x44 ./src/mode/mode.o
 .bss._ZZN5FcLed11getInstanceEvE8instance
                0x00000000       0x24 ./src/mode/mode.o
 .bss._ZZN6TactSw11getInstanceEvE8instance
                0x00000000        0x4 ./src/mode/mode.o
 .bss._ZGVZN7Gamepad11getInstanceEvE8instance
                0x00000000        0x8 ./src/mode/mode.o
 .bss._ZGVZN5FcLed11getInstanceEvE8instance
                0x00000000        0x8 ./src/mode/mode.o
 .bss._ZGVZN6TactSw11getInstanceEvE8instance
                0x00000000        0x8 ./src/mode/mode.o
 .group         0x00000000        0x8 ./src/mode/mode_B.o
 .group         0x00000000        0x8 ./src/mode/mode_B.o
 .group         0x00000000        0x8 ./src/mode/mode_B.o
 .group         0x00000000        0x8 ./src/mode/mode_B.o
 .group         0x00000000        0x8 ./src/mode/mode_B.o
 .group         0x00000000        0x8 ./src/mode/mode_B.o
 .group         0x00000000        0x8 ./src/mode/mode_B.o
 .group         0x00000000        0x8 ./src/mode/mode_B.o
 .group         0x00000000        0xc ./src/mode/mode_B.o
 .group         0x00000000        0x8 ./src/mode/mode_B.o
 .group         0x00000000        0x8 ./src/mode/mode_B.o
 .group         0x00000000        0x8 ./src/mode/mode_B.o
 .group         0x00000000        0x8 ./src/mode/mode_B.o
 .group         0x00000000        0x8 ./src/mode/mode_B.o
 .group         0x00000000        0x8 ./src/mode/mode_B.o
 .group         0x00000000        0x8 ./src/mode/mode_B.o
 .group         0x00000000        0x8 ./src/mode/mode_B.o
 .group         0x00000000        0x8 ./src/mode/mode_B.o
 .group         0x00000000        0x8 ./src/mode/mode_B.o
 .group         0x00000000        0x8 ./src/mode/mode_B.o
 .group         0x00000000        0x8 ./src/mode/mode_B.o
 .group         0x00000000        0x8 ./src/mode/mode_B.o
 .group         0x00000000        0x8 ./src/mode/mode_B.o
 .group         0x00000000        0x8 ./src/mode/mode_B.o
 .group         0x00000000        0x8 ./src/mode/mode_B.o
 .group         0x00000000        0x8 ./src/mode/mode_B.o
 .group         0x00000000        0x8 ./src/mode/mode_B.o
 .group         0x00000000        0x8 ./src/mode/mode_B.o
 .text._ZN7GamepadD2Ev
                0x00000000        0x1 ./src/mode/mode_B.o
 .text._ZN7MPU9250D2Ev
                0x00000000        0x1 ./src/mode/mode_B.o
 .text._ZN6UMouseD2Ev
                0x00000000        0x1 ./src/mode/mode_B.o
 .text._ZN9EventListD2Ev
                0x00000000       0x30 ./src/mode/mode_B.o
 .text._ZNSt11_Deque_baseIP13BaseMoveEventSaIS1_EE17_M_initialize_mapEm
                0x00000000      0x140 ./src/mode/mode_B.o
 .gcc_except_table._ZNSt11_Deque_baseIP13BaseMoveEventSaIS1_EE17_M_initialize_mapEm
                0x00000000       0x14 ./src/mode/mode_B.o
 .bss._ZZN7Gamepad11getInstanceEvE8instance
                0x00000000       0x44 ./src/mode/mode_B.o
 .bss._ZZN9EventList11getInstanceEvE8instance
                0x00000000       0x28 ./src/mode/mode_B.o
 .bss._ZZN6UMouse11getInstanceEvE8instance
                0x00000000      0x998 ./src/mode/mode_B.o
 .bss._ZZN7MPU925011getInstanceEvE8instance
                0x00000000       0x64 ./src/mode/mode_B.o
 .bss._ZGVZN9EventList11getInstanceEvE8instance
                0x00000000        0x8 ./src/mode/mode_B.o
 .bss._ZGVZN6UMouse11getInstanceEvE8instance
                0x00000000        0x8 ./src/mode/mode_B.o
 .bss._ZGVZN7MPU925011getInstanceEvE8instance
                0x00000000        0x8 ./src/mode/mode_B.o
 .bss._ZGVZN7Gamepad11getInstanceEvE8instance
                0x00000000        0x8 ./src/mode/mode_B.o
 .group         0x00000000        0x8 ./src/mode/mode_GB.o
 .group         0x00000000        0x8 ./src/mode/mode_GB.o
 .group         0x00000000        0x8 ./src/mode/mode_GB.o
 .group         0x00000000        0x8 ./src/mode/mode_GB.o
 .group         0x00000000        0x8 ./src/mode/mode_GB.o
 .group         0x00000000        0x8 ./src/mode/mode_GB.o
 .text._ZN7MPU9250D2Ev
                0x00000000        0x1 ./src/mode/mode_GB.o
 .text._ZN7GamepadD2Ev
                0x00000000        0x1 ./src/mode/mode_GB.o
 .bss._ZZN7MPU925011getInstanceEvE8instance
                0x00000000       0x64 ./src/mode/mode_GB.o
 .bss._ZZN7Gamepad11getInstanceEvE8instance
                0x00000000       0x44 ./src/mode/mode_GB.o
 .bss._ZGVZN7Gamepad11getInstanceEvE8instance
                0x00000000        0x8 ./src/mode/mode_GB.o
 .bss._ZGVZN7MPU925011getInstanceEvE8instance
                0x00000000        0x8 ./src/mode/mode_GB.o
 .group         0x00000000        0x8 ./src/mode/mode_N.o
 .group         0x00000000        0x8 ./src/mode/mode_N.o
 .group         0x00000000        0x8 ./src/mode/mode_N.o
 .group         0x00000000        0x8 ./src/mode/mode_N.o
 .group         0x00000000        0x8 ./src/mode/mode_N.o
 .group         0x00000000        0x8 ./src/mode/mode_N.o
 .text._ZN9Icm20608GD2Ev
                0x00000000        0x1 ./src/mode/mode_N.o
 .text._ZN7GamepadD2Ev
                0x00000000        0x1 ./src/mode/mode_N.o
 .bss._ZZN9Icm20608G11getInstanceEvE8instance
                0x00000000       0x54 ./src/mode/mode_N.o
 .bss._ZZN7Gamepad11getInstanceEvE8instance
                0x00000000       0x44 ./src/mode/mode_N.o
 .bss._ZGVZN7Gamepad11getInstanceEvE8instance
                0x00000000        0x8 ./src/mode/mode_N.o
 .bss._ZGVZN9Icm20608G11getInstanceEvE8instance
                0x00000000        0x8 ./src/mode/mode_N.o
 .group         0x00000000        0x8 ./src/mode/mode_RGB.o
 .group         0x00000000        0x8 ./src/mode/mode_RGB.o
 .group         0x00000000        0x8 ./src/mode/mode_RGB.o
 .group         0x00000000        0x8 ./src/mode/mode_RGB.o
 .group         0x00000000        0x8 ./src/mode/mode_RGB.o
 .group         0x00000000        0x8 ./src/mode/mode_RGB.o
 .text._ZN6UMouseD2Ev
                0x00000000        0x1 ./src/mode/mode_RGB.o
 .text._ZN7GamepadD2Ev
                0x00000000        0x1 ./src/mode/mode_RGB.o
 .bss._ZZN6UMouse11getInstanceEvE8instance
                0x00000000      0x998 ./src/mode/mode_RGB.o
 .bss._ZZN7Gamepad11getInstanceEvE8instance
                0x00000000       0x44 ./src/mode/mode_RGB.o
 .bss._ZGVZN7Gamepad11getInstanceEvE8instance
                0x00000000        0x8 ./src/mode/mode_RGB.o
 .bss._ZGVZN6UMouse11getInstanceEvE8instance
                0x00000000        0x8 ./src/mode/mode_RGB.o
 .group         0x00000000        0x8 ./src/peripheral/uart.o
 .group         0x00000000        0x8 ./src/peripheral/uart.o
 .group         0x00000000        0x8 ./src/peripheral/uart.o
 .group         0x00000000        0x8 ./src/peripheral/uart.o
 .group         0x00000000        0x8 ./src/peripheral/uart.o
 .group         0x00000000        0xc ./src/peripheral/uart.o
 .group         0x00000000        0x8 ./src/peripheral/uart.o
 .group         0x00000000        0x8 ./src/peripheral/uart.o
 .group         0x00000000        0x8 ./src/peripheral/uart.o
 .group         0x00000000        0x8 ./src/peripheral/uart.o
 .group         0x00000000        0xc ./src/peripheral/uart.o
 .group         0x00000000        0x8 ./src/peripheral/uart.o
 .group         0x00000000        0x8 ./src/peripheral/uart.o
 .group         0x00000000        0x8 ./src/peripheral/uart.o
 .group         0x00000000        0x8 ./src/peripheral/uart.o
 .group         0x00000000        0x8 ./src/peripheral/uart.o
 .group         0x00000000        0x8 ./src/peripheral/uart.o
 .group         0x00000000        0x8 ./src/peripheral/uart.o
 .group         0x00000000        0x8 ./src/peripheral/uart.o
 .group         0x00000000        0x8 ./src/peripheral/uart.o
 .group         0x00000000        0x8 ./src/peripheral/uart.o
 .group         0x00000000        0x8 ./src/peripheral/uart.o
 .group         0x00000000        0x8 ./src/peripheral/uart.o
 .group         0x00000000        0x8 ./src/peripheral/uart.o
 .group         0x00000000        0x8 ./src/peripheral/uart.o
 .group         0x00000000        0x8 ./src/peripheral/uart.o
 .group         0x00000000        0x8 ./src/peripheral/uart.o
 .group         0x00000000        0x8 ./src/peripheral/uart.o
 .text._ZN9Icm20608GD2Ev
                0x00000000        0x1 ./src/peripheral/uart.o
 .text._ZN7MPU9250D2Ev
                0x00000000        0x1 ./src/peripheral/uart.o
 .text._ZN6TactSwD2Ev
                0x00000000        0x1 ./src/peripheral/uart.o
 .text._ZN6UMouseD2Ev
                0x00000000        0x1 ./src/peripheral/uart.o
 .text._ZN7GamepadD2Ev
                0x00000000        0x1 ./src/peripheral/uart.o
 .text._ZN5FcLedD2Ev
                0x00000000       0x41 ./src/peripheral/uart.o
 .gcc_except_table._ZN5FcLedD2Ev
                0x00000000        0x4 ./src/peripheral/uart.o
 .text._ZN10WallSensorD2Ev
                0x00000000       0x80 ./src/peripheral/uart.o
 .text._ZNSt11_Deque_baseIsSaIsEED2Ev
                0x00000000       0x30 ./src/peripheral/uart.o
 .text._ZNSt5dequeIsSaIsEE17_M_reallocate_mapEmb
                0x00000000       0xf0 ./src/peripheral/uart.o
 .bss._ZZN10WallSensor11getInstanceEvE8instance
                0x00000000       0x88 ./src/peripheral/uart.o
 .bss._ZZN6TactSw11getInstanceEvE8instance
                0x00000000        0x4 ./src/peripheral/uart.o
 .bss._ZZN9Icm20608G11getInstanceEvE8instance
                0x00000000       0x54 ./src/peripheral/uart.o
 .bss._ZZN7MPU925011getInstanceEvE8instance
                0x00000000       0x64 ./src/peripheral/uart.o
 .bss._ZZN6UMouse11getInstanceEvE8instance
                0x00000000      0x998 ./src/peripheral/uart.o
 .bss._ZZN7Gamepad11getInstanceEvE8instance
                0x00000000       0x44 ./src/peripheral/uart.o
 .bss._ZZN5FcLed11getInstanceEvE8instance
                0x00000000       0x24 ./src/peripheral/uart.o
 .bss._ZGVZN7Gamepad11getInstanceEvE8instance
                0x00000000        0x8 ./src/peripheral/uart.o
 .bss._ZGVZN10WallSensor11getInstanceEvE8instance
                0x00000000        0x8 ./src/peripheral/uart.o
 .bss._ZGVZN6UMouse11getInstanceEvE8instance
                0x00000000        0x8 ./src/peripheral/uart.o
 .bss._ZGVZN5FcLed11getInstanceEvE8instance
                0x00000000        0x8 ./src/peripheral/uart.o
 .bss._ZGVZN6TactSw11getInstanceEvE8instance
                0x00000000        0x8 ./src/peripheral/uart.o
 .bss._ZGVZN7MPU925011getInstanceEvE8instance
                0x00000000        0x8 ./src/peripheral/uart.o
 .bss._ZGVZN9Icm20608G11getInstanceEvE8instance
                0x00000000        0x8 ./src/peripheral/uart.o
 .group         0x00000000        0x8 ./src/robot_object/fcled.o
 .group         0x00000000        0x8 ./src/robot_object/fcled.o
 .group         0x00000000        0x8 ./src/robot_object/fcled.o
 .group         0x00000000        0x8 ./src/robot_object/fcled.o
 .group         0x00000000        0x8 ./src/robot_object/fcled.o
 .group         0x00000000        0x8 ./src/robot_object/fcled.o
 .group         0x00000000        0x8 ./src/robot_object/fcled.o
 .group         0x00000000        0x8 ./src/robot_object/fcled.o
 .group         0x00000000        0x8 ./src/robot_object/fcled.o
 .group         0x00000000        0x8 ./src/robot_object/fcled.o
 .group         0x00000000        0x8 ./src/robot_object/fcled.o
 .group         0x00000000        0x8 ./src/umouse_object/sound.o
 .group         0x00000000        0x8 ./src/umouse_object/sound.o
 .group         0x00000000        0x8 ./src/umouse_object/sound.o
 .group         0x00000000        0x8 ./src/umouse_object/sound.o
 .group         0x00000000        0xc ./src/umouse_object/sound.o
 .group         0x00000000        0xc ./src/umouse_object/sound.o
 .group         0x00000000        0xc ./src/umouse_object/sound.o
 .group         0x00000000        0x8 C:\PROGRA~2\GCCFOR~2.201\rx-elf\rx-elf/rx-elf/lib\libstdc++.a(guard_error.o)
 .group         0x00000000        0x8 C:\PROGRA~2\GCCFOR~2.201\rx-elf\rx-elf/rx-elf/lib\libstdc++.a(guard_error.o)
 .group         0x00000000        0x8 C:\PROGRA~2\GCCFOR~2.201\rx-elf\rx-elf/rx-elf/lib\libstdc++.a(guard_error.o)
 .group         0x00000000        0x8 C:\PROGRA~2\GCCFOR~2.201\rx-elf\rx-elf/rx-elf/lib\libstdc++.a(si_class_type_info.o)
 .group         0x00000000        0x8 C:\PROGRA~2\GCCFOR~2.201\rx-elf\rx-elf/rx-elf/lib\libstdc++.a(si_class_type_info.o)
 .group         0x00000000        0x8 C:\PROGRA~2\GCCFOR~2.201\rx-elf\rx-elf/rx-elf/lib\libstdc++.a(si_class_type_info.o)
 .group         0x00000000        0x8 C:\PROGRA~2\GCCFOR~2.201\rx-elf\rx-elf/rx-elf/lib\libstdc++.a(eh_exception.o)
 .group         0x00000000        0x8 C:\PROGRA~2\GCCFOR~2.201\rx-elf\rx-elf/rx-elf/lib\libstdc++.a(eh_exception.o)
 .group         0x00000000        0x8 C:\PROGRA~2\GCCFOR~2.201\rx-elf\rx-elf/rx-elf/lib\libstdc++.a(eh_exception.o)
 .group         0x00000000        0x8 C:\PROGRA~2\GCCFOR~2.201\rx-elf\rx-elf/rx-elf/lib\libstdc++.a(eh_exception.o)
 .group         0x00000000        0x8 C:\PROGRA~2\GCCFOR~2.201\rx-elf\rx-elf/rx-elf/lib\libstdc++.a(eh_exception.o)
 .group         0x00000000        0x8 C:\PROGRA~2\GCCFOR~2.201\rx-elf\rx-elf/rx-elf/lib\libstdc++.a(eh_exception.o)
 .group         0x00000000        0x8 C:\PROGRA~2\GCCFOR~2.201\rx-elf\rx-elf/rx-elf/lib\libstdc++.a(eh_exception.o)
 .group         0x00000000        0x8 C:\PROGRA~2\GCCFOR~2.201\rx-elf\rx-elf/rx-elf/lib\libstdc++.a(eh_exception.o)
 .group         0x00000000        0x8 C:\PROGRA~2\GCCFOR~2.201\rx-elf\rx-elf/rx-elf/lib\libstdc++.a(eh_exception.o)
 .group         0x00000000        0x8 C:\PROGRA~2\GCCFOR~2.201\rx-elf\rx-elf/rx-elf/lib\libstdc++.a(eh_exception.o)
 .group         0x00000000        0x8 C:\PROGRA~2\GCCFOR~2.201\rx-elf\rx-elf/rx-elf/lib\libstdc++.a(eh_exception.o)
 .group         0x00000000        0x8 C:\PROGRA~2\GCCFOR~2.201\rx-elf\rx-elf/rx-elf/lib\libstdc++.a(eh_exception.o)
 .group         0x00000000        0x8 C:\PROGRA~2\GCCFOR~2.201\rx-elf\rx-elf/rx-elf/lib\libstdc++.a(class_type_info.o)
 .group         0x00000000        0x8 C:\PROGRA~2\GCCFOR~2.201\rx-elf\rx-elf/rx-elf/lib\libstdc++.a(class_type_info.o)
 .group         0x00000000        0x8 C:\PROGRA~2\GCCFOR~2.201\rx-elf\rx-elf/rx-elf/lib\libstdc++.a(class_type_info.o)
 .group         0x00000000        0x8 C:\PROGRA~2\GCCFOR~2.201\rx-elf\rx-elf/rx-elf/lib\libstdc++.a(functional.o)
 .group         0x00000000        0x8 C:\PROGRA~2\GCCFOR~2.201\rx-elf\rx-elf/rx-elf/lib\libstdc++.a(functional.o)
 .group         0x00000000        0x8 C:\PROGRA~2\GCCFOR~2.201\rx-elf\rx-elf/rx-elf/lib\libstdc++.a(functional.o)
 .group         0x00000000        0x8 C:\PROGRA~2\GCCFOR~2.201\rx-elf\rx-elf/rx-elf/lib\libstdc++.a(bad_typeid.o)
 .group         0x00000000        0x8 C:\PROGRA~2\GCCFOR~2.201\rx-elf\rx-elf/rx-elf/lib\libstdc++.a(bad_typeid.o)
 .group         0x00000000        0x8 C:\PROGRA~2\GCCFOR~2.201\rx-elf\rx-elf/rx-elf/lib\libstdc++.a(bad_typeid.o)
 .group         0x00000000        0x8 C:\PROGRA~2\GCCFOR~2.201\rx-elf\rx-elf/rx-elf/lib\libstdc++.a(bad_alloc.o)
 .group         0x00000000        0x8 C:\PROGRA~2\GCCFOR~2.201\rx-elf\rx-elf/rx-elf/lib\libstdc++.a(bad_alloc.o)
 .group         0x00000000        0x8 C:\PROGRA~2\GCCFOR~2.201\rx-elf\rx-elf/rx-elf/lib\libstdc++.a(bad_alloc.o)
 .group         0x00000000        0x8 C:\PROGRA~2\GCCFOR~2.201\rx-elf\rx-elf/rx-elf/lib\libstdc++.a(bad_cast.o)
 .group         0x00000000        0x8 C:\PROGRA~2\GCCFOR~2.201\rx-elf\rx-elf/rx-elf/lib\libstdc++.a(bad_cast.o)
 .group         0x00000000        0x8 C:\PROGRA~2\GCCFOR~2.201\rx-elf\rx-elf/rx-elf/lib\libstdc++.a(bad_cast.o)
 .group         0x00000000        0x8 C:\PROGRA~2\GCCFOR~2.201\rx-elf\rx-elf/rx-elf/lib\libstdc++.a(tinfo.o)
 .group         0x00000000        0x8 C:\PROGRA~2\GCCFOR~2.201\rx-elf\rx-elf/rx-elf/lib\libstdc++.a(tinfo.o)
 .group         0x00000000        0x8 C:\PROGRA~2\GCCFOR~2.201\rx-elf\rx-elf/rx-elf/lib\libstdc++.a(tinfo.o)
 .group         0x00000000        0x8 C:\PROGRA~2\GCCFOR~2.201\rx-elf\rx-elf/rx-elf/lib\libstdc++.a(stdexcept.o)
 .group         0x00000000        0x8 C:\PROGRA~2\GCCFOR~2.201\rx-elf\rx-elf/rx-elf/lib\libstdc++.a(stdexcept.o)
 .group         0x00000000        0x8 C:\PROGRA~2\GCCFOR~2.201\rx-elf\rx-elf/rx-elf/lib\libstdc++.a(stdexcept.o)
 .group         0x00000000        0x8 C:\PROGRA~2\GCCFOR~2.201\rx-elf\rx-elf/rx-elf/lib\libstdc++.a(stdexcept.o)
 .group         0x00000000        0x8 C:\PROGRA~2\GCCFOR~2.201\rx-elf\rx-elf/rx-elf/lib\libstdc++.a(stdexcept.o)
 .group         0x00000000        0x8 C:\PROGRA~2\GCCFOR~2.201\rx-elf\rx-elf/rx-elf/lib\libstdc++.a(stdexcept.o)
 .group         0x00000000        0x8 C:\PROGRA~2\GCCFOR~2.201\rx-elf\rx-elf/rx-elf/lib\libstdc++.a(stdexcept.o)
 .group         0x00000000        0x8 C:\PROGRA~2\GCCFOR~2.201\rx-elf\rx-elf/rx-elf/lib\libstdc++.a(stdexcept.o)
 .group         0x00000000        0x8 C:\PROGRA~2\GCCFOR~2.201\rx-elf\rx-elf/rx-elf/lib\libstdc++.a(stdexcept.o)
 .group         0x00000000        0x8 C:\PROGRA~2\GCCFOR~2.201\rx-elf\rx-elf/rx-elf/lib\libstdc++.a(stdexcept.o)
 .group         0x00000000        0x8 C:\PROGRA~2\GCCFOR~2.201\rx-elf\rx-elf/rx-elf/lib\libstdc++.a(stdexcept.o)
 .group         0x00000000        0x8 C:\PROGRA~2\GCCFOR~2.201\rx-elf\rx-elf/rx-elf/lib\libstdc++.a(stdexcept.o)
 .group         0x00000000        0x8 C:\PROGRA~2\GCCFOR~2.201\rx-elf\rx-elf/rx-elf/lib\libstdc++.a(stdexcept.o)
 .group         0x00000000        0x8 C:\PROGRA~2\GCCFOR~2.201\rx-elf\rx-elf/rx-elf/lib\libstdc++.a(stdexcept.o)
 .group         0x00000000        0x8 C:\PROGRA~2\GCCFOR~2.201\rx-elf\rx-elf/rx-elf/lib\libstdc++.a(stdexcept.o)
 .group         0x00000000        0x8 C:\PROGRA~2\GCCFOR~2.201\rx-elf\rx-elf/rx-elf/lib\libstdc++.a(stdexcept.o)
 .group         0x00000000        0x8 C:\PROGRA~2\GCCFOR~2.201\rx-elf\rx-elf/rx-elf/lib\libstdc++.a(stdexcept.o)
 .group         0x00000000        0x8 C:\PROGRA~2\GCCFOR~2.201\rx-elf\rx-elf/rx-elf/lib\libstdc++.a(stdexcept.o)
 .group         0x00000000        0x8 C:\PROGRA~2\GCCFOR~2.201\rx-elf\rx-elf/rx-elf/lib\libstdc++.a(stdexcept.o)
 .group         0x00000000        0x8 C:\PROGRA~2\GCCFOR~2.201\rx-elf\rx-elf/rx-elf/lib\libstdc++.a(stdexcept.o)
 .group         0x00000000        0x8 C:\PROGRA~2\GCCFOR~2.201\rx-elf\rx-elf/rx-elf/lib\libstdc++.a(stdexcept.o)
 .group         0x00000000        0x8 C:\PROGRA~2\GCCFOR~2.201\rx-elf\rx-elf/rx-elf/lib\libstdc++.a(stdexcept.o)
 .group         0x00000000        0x8 C:\PROGRA~2\GCCFOR~2.201\rx-elf\rx-elf/rx-elf/lib\libstdc++.a(stdexcept.o)
 .group         0x00000000        0x8 C:\PROGRA~2\GCCFOR~2.201\rx-elf\rx-elf/rx-elf/lib\libstdc++.a(stdexcept.o)
 .group         0x00000000        0x8 C:\PROGRA~2\GCCFOR~2.201\rx-elf\rx-elf/rx-elf/lib\libstdc++.a(stdexcept.o)
 .group         0x00000000        0x8 C:\PROGRA~2\GCCFOR~2.201\rx-elf\rx-elf/rx-elf/lib\libstdc++.a(stdexcept.o)
 .group         0x00000000        0x8 C:\PROGRA~2\GCCFOR~2.201\rx-elf\rx-elf/rx-elf/lib\libstdc++.a(stdexcept.o)
 .group         0x00000000        0x8 C:\PROGRA~2\GCCFOR~2.201\rx-elf\rx-elf/rx-elf/lib\libstdc++.a(ios_failure.o)
 .group         0x00000000        0x8 C:\PROGRA~2\GCCFOR~2.201\rx-elf\rx-elf/rx-elf/lib\libstdc++.a(ios_failure.o)
 .group         0x00000000        0x8 C:\PROGRA~2\GCCFOR~2.201\rx-elf\rx-elf/rx-elf/lib\libstdc++.a(ios_failure.o)
 .group         0x00000000        0x8 C:\PROGRA~2\GCCFOR~2.201\rx-elf\rx-elf/rx-elf/lib\libstdc++.a(system_error.o)
 .group         0x00000000        0x8 C:\PROGRA~2\GCCFOR~2.201\rx-elf\rx-elf/rx-elf/lib\libstdc++.a(system_error.o)
 .group         0x00000000        0x8 C:\PROGRA~2\GCCFOR~2.201\rx-elf\rx-elf/rx-elf/lib\libstdc++.a(system_error.o)
 .group         0x00000000        0x8 C:\PROGRA~2\GCCFOR~2.201\rx-elf\rx-elf/rx-elf/lib\libstdc++.a(system_error.o)
 .group         0x00000000        0x8 C:\PROGRA~2\GCCFOR~2.201\rx-elf\rx-elf/rx-elf/lib\libstdc++.a(system_error.o)
 .group         0x00000000        0x8 C:\PROGRA~2\GCCFOR~2.201\rx-elf\rx-elf/rx-elf/lib\libstdc++.a(system_error.o)
 .group         0x00000000        0x8 C:\PROGRA~2\GCCFOR~2.201\rx-elf\rx-elf/rx-elf/lib\libstdc++.a(future.o)
 .group         0x00000000        0x8 C:\PROGRA~2\GCCFOR~2.201\rx-elf\rx-elf/rx-elf/lib\libstdc++.a(future.o)
 .group         0x00000000        0x8 C:\PROGRA~2\GCCFOR~2.201\rx-elf\rx-elf/rx-elf/lib\libstdc++.a(future.o)
 .group         0x00000000        0x8 C:\PROGRA~2\GCCFOR~2.201\rx-elf\rx-elf/rx-elf/lib\libstdc++.a(string-inst.o)
 .group         0x00000000        0x8 C:\PROGRA~2\GCCFOR~2.201\rx-elf\rx-elf/rx-elf/lib\libstdc++.a(string-inst.o)
 .group         0x00000000        0x8 C:\PROGRA~2\GCCFOR~2.201\rx-elf\rx-elf/rx-elf/lib\libstdc++.a(string-inst.o)
 .group         0x00000000        0x8 C:\PROGRA~2\GCCFOR~2.201\rx-elf\rx-elf/rx-elf/lib\libstdc++.a(string-inst.o)
 .group         0x00000000        0x8 C:\PROGRA~2\GCCFOR~2.201\rx-elf\rx-elf/rx-elf/lib\libstdc++.a(string-inst.o)
 .group         0x00000000        0x8 C:\PROGRA~2\GCCFOR~2.201\rx-elf\rx-elf/rx-elf/lib\libstdc++.a(string-inst.o)
 .group         0x00000000        0x8 C:\PROGRA~2\GCCFOR~2.201\rx-elf\rx-elf/rx-elf/lib\libstdc++.a(string-inst.o)
 .group         0x00000000        0x8 C:\PROGRA~2\GCCFOR~2.201\rx-elf\rx-elf/rx-elf/lib\libstdc++.a(string-inst.o)
 .group         0x00000000        0x8 C:\PROGRA~2\GCCFOR~2.201\rx-elf\rx-elf/rx-elf/lib\libstdc++.a(string-inst.o)
 .group         0x00000000        0x8 C:\PROGRA~2\GCCFOR~2.201\rx-elf\rx-elf/rx-elf/lib\libstdc++.a(string-inst.o)
 .group         0x00000000        0x8 C:\PROGRA~2\GCCFOR~2.201\rx-elf\rx-elf/rx-elf/lib\libstdc++.a(string-inst.o)
 .group         0x00000000        0x8 C:\PROGRA~2\GCCFOR~2.201\rx-elf\rx-elf/rx-elf/lib\libstdc++.a(string-inst.o)
 .group         0x00000000        0x8 C:\PROGRA~2\GCCFOR~2.201\rx-elf\rx-elf/rx-elf/lib\libstdc++.a(string-inst.o)
 .group         0x00000000        0x8 C:\PROGRA~2\GCCFOR~2.201\rx-elf\rx-elf/rx-elf/lib\libstdc++.a(string-inst.o)
 .group         0x00000000        0x8 C:\PROGRA~2\GCCFOR~2.201\rx-elf\rx-elf/rx-elf/lib\libstdc++.a(string-inst.o)
 .group         0x00000000        0x8 C:\PROGRA~2\GCCFOR~2.201\rx-elf\rx-elf/rx-elf/lib\libstdc++.a(string-inst.o)
 .group         0x00000000        0x8 C:\PROGRA~2\GCCFOR~2.201\rx-elf\rx-elf/rx-elf/lib\libstdc++.a(string-inst.o)
 .group         0x00000000        0x8 C:\PROGRA~2\GCCFOR~2.201\rx-elf\rx-elf/rx-elf/lib\libstdc++.a(string-inst.o)
 .group         0x00000000        0x8 C:\PROGRA~2\GCCFOR~2.201\rx-elf\rx-elf/rx-elf/lib\libstdc++.a(string-inst.o)
 .group         0x00000000        0x8 C:\PROGRA~2\GCCFOR~2.201\rx-elf\rx-elf/rx-elf/lib\libstdc++.a(string-inst.o)
 .group         0x00000000        0x8 C:\PROGRA~2\GCCFOR~2.201\rx-elf\rx-elf/rx-elf/lib\libstdc++.a(string-inst.o)
 .group         0x00000000        0x8 C:\PROGRA~2\GCCFOR~2.201\rx-elf\rx-elf/rx-elf/lib\libstdc++.a(string-inst.o)
 .group         0x00000000        0x8 C:\PROGRA~2\GCCFOR~2.201\rx-elf\rx-elf/rx-elf/lib\libstdc++.a(string-inst.o)
 .group         0x00000000        0x8 C:\PROGRA~2\GCCFOR~2.201\rx-elf\rx-elf/rx-elf/lib\libstdc++.a(string-inst.o)
 .group         0x00000000        0x8 C:\PROGRA~2\GCCFOR~2.201\rx-elf\rx-elf/rx-elf/lib\libstdc++.a(string-inst.o)
 .group         0x00000000        0x8 C:\PROGRA~2\GCCFOR~2.201\rx-elf\rx-elf/rx-elf/lib\libstdc++.a(string-inst.o)
 .group         0x00000000        0x8 C:\PROGRA~2\GCCFOR~2.201\rx-elf\rx-elf/rx-elf/lib\libstdc++.a(string-inst.o)
 .group         0x00000000        0x8 C:\PROGRA~2\GCCFOR~2.201\rx-elf\rx-elf/rx-elf/lib\libstdc++.a(string-inst.o)
 .group         0x00000000        0x8 C:\PROGRA~2\GCCFOR~2.201\rx-elf\rx-elf/rx-elf/lib\libstdc++.a(string-inst.o)
 .group         0x00000000        0x8 C:\PROGRA~2\GCCFOR~2.201\rx-elf\rx-elf/rx-elf/lib\libstdc++.a(string-inst.o)
 .group         0x00000000        0x8 C:\PROGRA~2\GCCFOR~2.201\rx-elf\rx-elf/rx-elf/lib\libstdc++.a(string-inst.o)
 .group         0x00000000        0x8 C:\PROGRA~2\GCCFOR~2.201\rx-elf\rx-elf/rx-elf/lib\libstdc++.a(string-inst.o)
 .group         0x00000000        0x8 C:\PROGRA~2\GCCFOR~2.201\rx-elf\rx-elf/rx-elf/lib\libstdc++.a(string-inst.o)
 .group         0x00000000        0x8 C:\PROGRA~2\GCCFOR~2.201\rx-elf\rx-elf/rx-elf/lib\libstdc++.a(string-inst.o)
 .group         0x00000000        0x8 C:\PROGRA~2\GCCFOR~2.201\rx-elf\rx-elf/rx-elf/lib\libstdc++.a(string-inst.o)
 .group         0x00000000        0x8 C:\PROGRA~2\GCCFOR~2.201\rx-elf\rx-elf/rx-elf/lib\libstdc++.a(string-inst.o)
 .group         0x00000000        0x8 C:\PROGRA~2\GCCFOR~2.201\rx-elf\rx-elf/rx-elf/lib\libstdc++.a(string-inst.o)
 .group         0x00000000        0x8 C:\PROGRA~2\GCCFOR~2.201\rx-elf\rx-elf/rx-elf/lib\libstdc++.a(string-inst.o)
 .group         0x00000000        0x8 C:\PROGRA~2\GCCFOR~2.201\rx-elf\rx-elf/rx-elf/lib\libstdc++.a(string-inst.o)
 .group         0x00000000        0x8 C:\PROGRA~2\GCCFOR~2.201\rx-elf\rx-elf/rx-elf/lib\libstdc++.a(string-inst.o)
 .group         0x00000000        0x8 C:\PROGRA~2\GCCFOR~2.201\rx-elf\rx-elf/rx-elf/lib\libstdc++.a(string-inst.o)
 .group         0x00000000        0x8 C:\PROGRA~2\GCCFOR~2.201\rx-elf\rx-elf/rx-elf/lib\libstdc++.a(string-inst.o)
 .group         0x00000000        0x8 C:\PROGRA~2\GCCFOR~2.201\rx-elf\rx-elf/rx-elf/lib\libstdc++.a(string-inst.o)
 .group         0x00000000        0x8 C:\PROGRA~2\GCCFOR~2.201\rx-elf\rx-elf/rx-elf/lib\libstdc++.a(string-inst.o)
 .group         0x00000000        0x8 C:\PROGRA~2\GCCFOR~2.201\rx-elf\rx-elf/rx-elf/lib\libstdc++.a(string-inst.o)
 .group         0x00000000        0xc C:\PROGRA~2\GCCFOR~2.201\rx-elf\rx-elf/rx-elf/lib\libstdc++.a(string-inst.o)
 .group         0x00000000        0x8 C:\PROGRA~2\GCCFOR~2.201\rx-elf\rx-elf/rx-elf/lib\libstdc++.a(string-inst.o)
 .group         0x00000000        0x8 C:\PROGRA~2\GCCFOR~2.201\rx-elf\rx-elf/rx-elf/lib\libstdc++.a(string-inst.o)
 .group         0x00000000        0x8 C:\PROGRA~2\GCCFOR~2.201\rx-elf\rx-elf/rx-elf/lib\libstdc++.a(string-inst.o)
 .group         0x00000000        0xc C:\PROGRA~2\GCCFOR~2.201\rx-elf\rx-elf/rx-elf/lib\libstdc++.a(string-inst.o)
 .group         0x00000000        0x8 C:\PROGRA~2\GCCFOR~2.201\rx-elf\rx-elf/rx-elf/lib\libstdc++.a(string-inst.o)
 .group         0x00000000        0x8 C:\PROGRA~2\GCCFOR~2.201\rx-elf\rx-elf/rx-elf/lib\libstdc++.a(string-inst.o)
 .group         0x00000000        0x8 C:\PROGRA~2\GCCFOR~2.201\rx-elf\rx-elf/rx-elf/lib\libstdc++.a(string-inst.o)
 .group         0x00000000        0xc C:\PROGRA~2\GCCFOR~2.201\rx-elf\rx-elf/rx-elf/lib\libstdc++.a(string-inst.o)
 .group         0x00000000        0x8 C:\PROGRA~2\GCCFOR~2.201\rx-elf\rx-elf/rx-elf/lib\libstdc++.a(string-inst.o)
 .group         0x00000000        0x8 C:\PROGRA~2\GCCFOR~2.201\rx-elf\rx-elf/rx-elf/lib\libstdc++.a(string-inst.o)
 .group         0x00000000        0x8 C:\PROGRA~2\GCCFOR~2.201\rx-elf\rx-elf/rx-elf/lib\libstdc++.a(string-inst.o)
 .group         0x00000000        0xc C:\PROGRA~2\GCCFOR~2.201\rx-elf\rx-elf/rx-elf/lib\libstdc++.a(string-inst.o)
 .group         0x00000000        0x8 C:\PROGRA~2\GCCFOR~2.201\rx-elf\rx-elf/rx-elf/lib\libstdc++.a(string-inst.o)
 .group         0x00000000        0x8 C:\PROGRA~2\GCCFOR~2.201\rx-elf\rx-elf/rx-elf/lib\libstdc++.a(string-inst.o)
 .group         0x00000000        0x8 C:\PROGRA~2\GCCFOR~2.201\rx-elf\rx-elf/rx-elf/lib\libstdc++.a(string-inst.o)
 .group         0x00000000        0xc C:\PROGRA~2\GCCFOR~2.201\rx-elf\rx-elf/rx-elf/lib\libstdc++.a(string-inst.o)
 .group         0x00000000        0x8 C:\PROGRA~2\GCCFOR~2.201\rx-elf\rx-elf/rx-elf/lib\libstdc++.a(string-inst.o)
 .group         0x00000000        0x8 C:\PROGRA~2\GCCFOR~2.201\rx-elf\rx-elf/rx-elf/lib\libstdc++.a(string-inst.o)
 .group         0x00000000        0x8 C:\PROGRA~2\GCCFOR~2.201\rx-elf\rx-elf/rx-elf/lib\libstdc++.a(string-inst.o)
 .group         0x00000000        0xc C:\PROGRA~2\GCCFOR~2.201\rx-elf\rx-elf/rx-elf/lib\libstdc++.a(string-inst.o)
 .group         0x00000000        0x8 C:\PROGRA~2\GCCFOR~2.201\rx-elf\rx-elf/rx-elf/lib\libstdc++.a(string-inst.o)
 .group         0x00000000        0x8 C:\PROGRA~2\GCCFOR~2.201\rx-elf\rx-elf/rx-elf/lib\libstdc++.a(string-inst.o)
 .group         0x00000000        0x8 C:\PROGRA~2\GCCFOR~2.201\rx-elf\rx-elf/rx-elf/lib\libstdc++.a(string-inst.o)
 .group         0x00000000        0x8 C:\PROGRA~2\GCCFOR~2.201\rx-elf\rx-elf/rx-elf/lib\libstdc++.a(string-inst.o)
 .group         0x00000000        0x8 C:\PROGRA~2\GCCFOR~2.201\rx-elf\rx-elf/rx-elf/lib\libstdc++.a(string-inst.o)
 .group         0x00000000        0x8 C:\PROGRA~2\GCCFOR~2.201\rx-elf\rx-elf/rx-elf/lib\libstdc++.a(string-inst.o)
 .group         0x00000000        0x8 C:\PROGRA~2\GCCFOR~2.201\rx-elf\rx-elf/rx-elf/lib\libstdc++.a(string-inst.o)
 .group         0x00000000        0x8 C:\PROGRA~2\GCCFOR~2.201\rx-elf\rx-elf/rx-elf/lib\libstdc++.a(string-inst.o)
 .group         0x00000000        0x8 C:\PROGRA~2\GCCFOR~2.201\rx-elf\rx-elf/rx-elf/lib\libstdc++.a(string-inst.o)
 .group         0x00000000        0x8 C:\PROGRA~2\GCCFOR~2.201\rx-elf\rx-elf/rx-elf/lib\libstdc++.a(string-inst.o)
 .group         0x00000000        0x8 C:\PROGRA~2\GCCFOR~2.201\rx-elf\rx-elf/rx-elf/lib\libstdc++.a(string-inst.o)
 .group         0x00000000        0x8 C:\PROGRA~2\GCCFOR~2.201\rx-elf\rx-elf/rx-elf/lib\libstdc++.a(string-inst.o)
 .group         0x00000000        0x8 C:\PROGRA~2\GCCFOR~2.201\rx-elf\rx-elf/rx-elf/lib\libstdc++.a(string-inst.o)
 .group         0x00000000        0x8 C:\PROGRA~2\GCCFOR~2.201\rx-elf\rx-elf/rx-elf/lib\libstdc++.a(string-inst.o)
 .group         0x00000000        0x8 C:\PROGRA~2\GCCFOR~2.201\rx-elf\rx-elf/rx-elf/lib\libstdc++.a(string-inst.o)
 .group         0x00000000        0x8 C:\PROGRA~2\GCCFOR~2.201\rx-elf\rx-elf/rx-elf/lib\libstdc++.a(string-inst.o)
 .group         0x00000000        0x8 C:\PROGRA~2\GCCFOR~2.201\rx-elf\rx-elf/rx-elf/lib\libstdc++.a(string-inst.o)
 .group         0x00000000        0x8 C:\PROGRA~2\GCCFOR~2.201\rx-elf\rx-elf/rx-elf/lib\libstdc++.a(string-inst.o)
 .group         0x00000000        0x8 C:\PROGRA~2\GCCFOR~2.201\rx-elf\rx-elf/rx-elf/lib\libstdc++.a(string-inst.o)
 .group         0x00000000        0x8 C:\PROGRA~2\GCCFOR~2.201\rx-elf\rx-elf/rx-elf/lib\libstdc++.a(string-inst.o)
 .group         0x00000000        0x8 C:\PROGRA~2\GCCFOR~2.201\rx-elf\rx-elf/rx-elf/lib\libstdc++.a(string-inst.o)
 .group         0x00000000        0x8 C:\PROGRA~2\GCCFOR~2.201\rx-elf\rx-elf/rx-elf/lib\libstdc++.a(string-inst.o)
 .group         0x00000000        0x8 C:\PROGRA~2\GCCFOR~2.201\rx-elf\rx-elf/rx-elf/lib\libstdc++.a(string-inst.o)
 .group         0x00000000        0x8 C:\PROGRA~2\GCCFOR~2.201\rx-elf\rx-elf/rx-elf/lib\libstdc++.a(string-inst.o)
 .group         0x00000000        0x8 C:\PROGRA~2\GCCFOR~2.201\rx-elf\rx-elf/rx-elf/lib\libstdc++.a(string-inst.o)
 .group         0x00000000        0x8 C:\PROGRA~2\GCCFOR~2.201\rx-elf\rx-elf/rx-elf/lib\libstdc++.a(string-inst.o)
 .group         0x00000000        0x8 C:\PROGRA~2\GCCFOR~2.201\rx-elf\rx-elf/rx-elf/lib\libstdc++.a(string-inst.o)
 .group         0x00000000        0xc C:\PROGRA~2\GCCFOR~2.201\rx-elf\rx-elf/rx-elf/lib\libstdc++.a(string-inst.o)
 .group         0x00000000        0xc C:\PROGRA~2\GCCFOR~2.201\rx-elf\rx-elf/rx-elf/lib\libstdc++.a(string-inst.o)
 .group         0x00000000        0xc C:\PROGRA~2\GCCFOR~2.201\rx-elf\rx-elf/rx-elf/lib\libstdc++.a(string-inst.o)
 .group         0x00000000        0x8 C:\PROGRA~2\GCCFOR~2.201\rx-elf\rx-elf/rx-elf/lib\libstdc++.a(string-inst.o)
 .group         0x00000000        0x8 C:\PROGRA~2\GCCFOR~2.201\rx-elf\rx-elf/rx-elf/lib\libstdc++.a(string-inst.o)
 .group         0x00000000        0x8 C:\PROGRA~2\GCCFOR~2.201\rx-elf\rx-elf/rx-elf/lib\libstdc++.a(string-inst.o)
 .group         0x00000000        0x8 C:\PROGRA~2\GCCFOR~2.201\rx-elf\rx-elf/rx-elf/lib\libstdc++.a(string-inst.o)
 .group         0x00000000        0xc C:\PROGRA~2\GCCFOR~2.201\rx-elf\rx-elf/rx-elf/lib\libstdc++.a(string-inst.o)
 .group         0x00000000        0xc C:\PROGRA~2\GCCFOR~2.201\rx-elf\rx-elf/rx-elf/lib\libstdc++.a(string-inst.o)
 .group         0x00000000        0x8 C:\PROGRA~2\GCCFOR~2.201\rx-elf\rx-elf/rx-elf/lib\libstdc++.a(string-inst.o)
 .group         0x00000000        0x8 C:\PROGRA~2\GCCFOR~2.201\rx-elf\rx-elf/rx-elf/lib\libstdc++.a(string-inst.o)
 .group         0x00000000        0x8 C:\PROGRA~2\GCCFOR~2.201\rx-elf\rx-elf/rx-elf/lib\libstdc++.a(string-inst.o)
 .group         0x00000000        0x8 C:\PROGRA~2\GCCFOR~2.201\rx-elf\rx-elf/rx-elf/lib\libstdc++.a(string-inst.o)
 .group         0x00000000        0x8 C:\PROGRA~2\GCCFOR~2.201\rx-elf\rx-elf/rx-elf/lib\libstdc++.a(string-inst.o)
 .group         0x00000000        0x8 C:\PROGRA~2\GCCFOR~2.201\rx-elf\rx-elf/rx-elf/lib\libstdc++.a(string-inst.o)
 .group         0x00000000        0x8 C:\PROGRA~2\GCCFOR~2.201\rx-elf\rx-elf/rx-elf/lib\libstdc++.a(string-inst.o)
 .group         0x00000000        0x8 C:\PROGRA~2\GCCFOR~2.201\rx-elf\rx-elf/rx-elf/lib\libstdc++.a(string-inst.o)
 .group         0x00000000        0x8 C:\PROGRA~2\GCCFOR~2.201\rx-elf\rx-elf/rx-elf/lib\libstdc++.a(string-inst.o)
 .group         0x00000000        0x8 C:\PROGRA~2\GCCFOR~2.201\rx-elf\rx-elf/rx-elf/lib\libstdc++.a(string-inst.o)
 .group         0x00000000        0x8 C:\PROGRA~2\GCCFOR~2.201\rx-elf\rx-elf/rx-elf/lib\libstdc++.a(string-inst.o)
 .group         0x00000000        0x8 C:\PROGRA~2\GCCFOR~2.201\rx-elf\rx-elf/rx-elf/lib\libstdc++.a(string-inst.o)
 .group         0x00000000        0x8 C:\PROGRA~2\GCCFOR~2.201\rx-elf\rx-elf/rx-elf/lib\libstdc++.a(string-inst.o)
 .group         0x00000000        0x8 C:\PROGRA~2\GCCFOR~2.201\rx-elf\rx-elf/rx-elf/lib\libstdc++.a(string-inst.o)
 .group         0x00000000        0x8 C:\PROGRA~2\GCCFOR~2.201\rx-elf\rx-elf/rx-elf/lib\libstdc++.a(string-inst.o)
 .group         0x00000000        0x8 C:\PROGRA~2\GCCFOR~2.201\rx-elf\rx-elf/rx-elf/lib\libstdc++.a(string-inst.o)
 .group         0x00000000        0x8 C:\PROGRA~2\GCCFOR~2.201\rx-elf\rx-elf/rx-elf/lib\libstdc++.a(string-inst.o)
 .group         0x00000000        0x8 C:\PROGRA~2\GCCFOR~2.201\rx-elf\rx-elf/rx-elf/lib\libstdc++.a(string-inst.o)
 .group         0x00000000        0x8 C:\PROGRA~2\GCCFOR~2.201\rx-elf\rx-elf/rx-elf/lib\libstdc++.a(string-inst.o)
 .group         0x00000000        0x8 C:\PROGRA~2\GCCFOR~2.201\rx-elf\rx-elf/rx-elf/lib\libstdc++.a(string-inst.o)
 .group         0x00000000        0x8 C:\PROGRA~2\GCCFOR~2.201\rx-elf\rx-elf/rx-elf/lib\libstdc++.a(string-inst.o)
 .group         0x00000000        0x8 C:\PROGRA~2\GCCFOR~2.201\rx-elf\rx-elf/rx-elf/lib\libstdc++.a(string-inst.o)
 .group         0x00000000        0x8 C:\PROGRA~2\GCCFOR~2.201\rx-elf\rx-elf/rx-elf/lib\libstdc++.a(string-inst.o)
 .group         0x00000000        0x8 C:\PROGRA~2\GCCFOR~2.201\rx-elf\rx-elf/rx-elf/lib\libstdc++.a(string-inst.o)
 .group         0x00000000        0x8 C:\PROGRA~2\GCCFOR~2.201\rx-elf\rx-elf/rx-elf/lib\libstdc++.a(string-inst.o)
 .group         0x00000000        0x8 C:\PROGRA~2\GCCFOR~2.201\rx-elf\rx-elf/rx-elf/lib\libstdc++.a(string-inst.o)
 .group         0x00000000        0x8 C:\PROGRA~2\GCCFOR~2.201\rx-elf\rx-elf/rx-elf/lib\libstdc++.a(string-inst.o)
 .group         0x00000000        0xc C:\PROGRA~2\GCCFOR~2.201\rx-elf\rx-elf/rx-elf/lib\libstdc++.a(string-inst.o)
 .group         0x00000000        0x8 C:\PROGRA~2\GCCFOR~2.201\rx-elf\rx-elf/rx-elf/lib\libstdc++.a(string-inst.o)
 .group         0x00000000        0x8 C:\PROGRA~2\GCCFOR~2.201\rx-elf\rx-elf/rx-elf/lib\libstdc++.a(string-inst.o)
 .group         0x00000000        0x8 C:\PROGRA~2\GCCFOR~2.201\rx-elf\rx-elf/rx-elf/lib\libstdc++.a(string-inst.o)
 .group         0x00000000        0x8 C:\PROGRA~2\GCCFOR~2.201\rx-elf\rx-elf/rx-elf/lib\libstdc++.a(string-inst.o)
 .group         0x00000000        0x8 C:\PROGRA~2\GCCFOR~2.201\rx-elf\rx-elf/rx-elf/lib\libstdc++.a(string-inst.o)
 .group         0x00000000        0x8 C:\PROGRA~2\GCCFOR~2.201\rx-elf\rx-elf/rx-elf/lib\libstdc++.a(string-inst.o)
 .group         0x00000000        0x8 C:\PROGRA~2\GCCFOR~2.201\rx-elf\rx-elf/rx-elf/lib\libstdc++.a(string-inst.o)
 .group         0x00000000        0x8 C:\PROGRA~2\GCCFOR~2.201\rx-elf\rx-elf/rx-elf/lib\libstdc++.a(string-inst.o)
 .group         0x00000000        0x8 C:\PROGRA~2\GCCFOR~2.201\rx-elf\rx-elf/rx-elf/lib\libstdc++.a(string-inst.o)
 .group         0x00000000        0x8 C:\PROGRA~2\GCCFOR~2.201\rx-elf\rx-elf/rx-elf/lib\libstdc++.a(string-inst.o)
 .group         0x00000000        0x8 C:\PROGRA~2\GCCFOR~2.201\rx-elf\rx-elf/rx-elf/lib\libstdc++.a(string-inst.o)
 .group         0x00000000        0x8 C:\PROGRA~2\GCCFOR~2.201\rx-elf\rx-elf/rx-elf/lib\libstdc++.a(string-inst.o)
 .group         0x00000000        0x8 C:\PROGRA~2\GCCFOR~2.201\rx-elf\rx-elf/rx-elf/lib\libstdc++.a(string-inst.o)
 .group         0x00000000        0x8 C:\PROGRA~2\GCCFOR~2.201\rx-elf\rx-elf/rx-elf/lib\libstdc++.a(string-inst.o)
 .group         0x00000000        0x8 C:\PROGRA~2\GCCFOR~2.201\rx-elf\rx-elf/rx-elf/lib\libstdc++.a(string-inst.o)
 .group         0x00000000        0x8 C:\PROGRA~2\GCCFOR~2.201\rx-elf\rx-elf/rx-elf/lib\libstdc++.a(string-inst.o)
 .group         0x00000000        0x8 C:\PROGRA~2\GCCFOR~2.201\rx-elf\rx-elf/rx-elf/lib\libstdc++.a(string-inst.o)
 .group         0x00000000        0xc C:\PROGRA~2\GCCFOR~2.201\rx-elf\rx-elf/rx-elf/lib\libstdc++.a(string-inst.o)
 .group         0x00000000        0xc C:\PROGRA~2\GCCFOR~2.201\rx-elf\rx-elf/rx-elf/lib\libstdc++.a(string-inst.o)
 .group         0x00000000        0xc C:\PROGRA~2\GCCFOR~2.201\rx-elf\rx-elf/rx-elf/lib\libstdc++.a(string-inst.o)
 .group         0x00000000        0x8 C:\PROGRA~2\GCCFOR~2.201\rx-elf\rx-elf/rx-elf/lib\libstdc++.a(string-inst.o)
 .group         0x00000000        0x8 C:\PROGRA~2\GCCFOR~2.201\rx-elf\rx-elf/rx-elf/lib\libstdc++.a(string-inst.o)
 .group         0x00000000        0x8 C:\PROGRA~2\GCCFOR~2.201\rx-elf\rx-elf/rx-elf/lib\libstdc++.a(string-inst.o)
 .group         0x00000000        0x8 C:\PROGRA~2\GCCFOR~2.201\rx-elf\rx-elf/rx-elf/lib\libstdc++.a(string-inst.o)
 .group         0x00000000        0x8 C:\PROGRA~2\GCCFOR~2.201\rx-elf\rx-elf/rx-elf/lib\libstdc++.a(string-inst.o)
 .group         0x00000000        0x8 C:\PROGRA~2\GCCFOR~2.201\rx-elf\rx-elf/rx-elf/lib\libstdc++.a(string-inst.o)
 .group         0x00000000        0x8 C:\PROGRA~2\GCCFOR~2.201\rx-elf\rx-elf/rx-elf/lib\libstdc++.a(string-inst.o)
 .group         0x00000000        0x8 C:\PROGRA~2\GCCFOR~2.201\rx-elf\rx-elf/rx-elf/lib\libstdc++.a(string-inst.o)
 .group         0x00000000        0x8 C:\PROGRA~2\GCCFOR~2.201\rx-elf\rx-elf/rx-elf/lib\libstdc++.a(string-inst.o)
 .group         0x00000000        0xc C:\PROGRA~2\GCCFOR~2.201\rx-elf\rx-elf/rx-elf/lib\libstdc++.a(string-inst.o)
 .group         0x00000000        0x8 C:\PROGRA~2\GCCFOR~2.201\rx-elf\rx-elf/rx-elf/lib\libstdc++.a(string-inst.o)
 .group         0x00000000        0x8 C:\PROGRA~2\GCCFOR~2.201\rx-elf\rx-elf/rx-elf/lib\libstdc++.a(string-inst.o)
 .group         0x00000000        0x8 C:\PROGRA~2\GCCFOR~2.201\rx-elf\rx-elf/rx-elf/lib\libstdc++.a(string-inst.o)
 .group         0x00000000        0x8 C:\PROGRA~2\GCCFOR~2.201\rx-elf\rx-elf/rx-elf/lib\libstdc++.a(string-inst.o)
 .group         0x00000000        0x8 C:\PROGRA~2\GCCFOR~2.201\rx-elf\rx-elf/rx-elf/lib\libstdc++.a(string-inst.o)
 .group         0x00000000        0x8 C:\PROGRA~2\GCCFOR~2.201\rx-elf\rx-elf/rx-elf/lib\libstdc++.a(string-inst.o)
 .group         0x00000000        0x8 C:\PROGRA~2\GCCFOR~2.201\rx-elf\rx-elf/rx-elf/lib\libstdc++.a(string-inst.o)
 .group         0x00000000        0x8 C:\PROGRA~2\GCCFOR~2.201\rx-elf\rx-elf/rx-elf/lib\libstdc++.a(string-inst.o)
 .group         0x00000000        0x8 C:\PROGRA~2\GCCFOR~2.201\rx-elf\rx-elf/rx-elf/lib\libstdc++.a(string-inst.o)
 .group         0x00000000        0x8 C:\PROGRA~2\GCCFOR~2.201\rx-elf\rx-elf/rx-elf/lib\libstdc++.a(string-inst.o)
 .group         0x00000000        0x8 C:\PROGRA~2\GCCFOR~2.201\rx-elf\rx-elf/rx-elf/lib\libstdc++.a(string-inst.o)
 .group         0x00000000        0x8 C:\PROGRA~2\GCCFOR~2.201\rx-elf\rx-elf/rx-elf/lib\libstdc++.a(string-inst.o)
 .group         0x00000000        0x8 C:\PROGRA~2\GCCFOR~2.201\rx-elf\rx-elf/rx-elf/lib\libstdc++.a(string-inst.o)
 .group         0x00000000        0x8 C:\PROGRA~2\GCCFOR~2.201\rx-elf\rx-elf/rx-elf/lib\libstdc++.a(string-inst.o)
 .group         0x00000000        0x8 C:\PROGRA~2\GCCFOR~2.201\rx-elf\rx-elf/rx-elf/lib\libstdc++.a(string-inst.o)
 .group         0x00000000        0x8 C:\PROGRA~2\GCCFOR~2.201\rx-elf\rx-elf/rx-elf/lib\libstdc++.a(string-inst.o)
 .group         0x00000000        0x8 C:\PROGRA~2\GCCFOR~2.201\rx-elf\rx-elf/rx-elf/lib\libstdc++.a(string-inst.o)
 .group         0x00000000        0x8 C:\PROGRA~2\GCCFOR~2.201\rx-elf\rx-elf/rx-elf/lib\libstdc++.a(string-inst.o)
 .group         0x00000000        0x8 C:\PROGRA~2\GCCFOR~2.201\rx-elf\rx-elf/rx-elf/lib\libstdc++.a(string-inst.o)
 .group         0x00000000        0x8 C:\PROGRA~2\GCCFOR~2.201\rx-elf\rx-elf/rx-elf/lib\libstdc++.a(string-inst.o)
 .group         0x00000000        0x8 C:\PROGRA~2\GCCFOR~2.201\rx-elf\rx-elf/rx-elf/lib\libstdc++.a(regex.o)
 .group         0x00000000        0x8 C:\PROGRA~2\GCCFOR~2.201\rx-elf\rx-elf/rx-elf/lib\libstdc++.a(regex.o)
 .group         0x00000000        0x8 C:\PROGRA~2\GCCFOR~2.201\rx-elf\rx-elf/rx-elf/lib\libstdc++.a(regex.o)

Memory Configuration

Name             Origin             Length             Attributes
RAM              0x00000000         0x00080000
ROM              0xffc00000         0x00400000
OFS              0x00120000         0x00000100
*default*        0x00000000         0xffffffff

Linker script and memory map


.fvectors       0xfffffffc        0x4
 *(.fvectors)
 .fvectors      0xfffffffc        0x4 ./src/other/vector_table.o
                0xfffffffc                HardwareVectors

.exvectors      0xffffff80       0x7c
 *(.exvectors)
 .exvectors     0xffffff80       0x7c ./src/other/vector_table.o
                0xffffff80                ExceptVectors

.text           0xffc00000    0x1e6f2
 *(.text)
 .text          0xffc00000       0xc9 ./src/other/reset_program.o
                0xffc00000                PowerON_Reset
                0xffc00070                rx_run_preinit_array
                0xffc00084                rx_run_init_array
                0xffc0009a                rx_run_fini_array
 *(.text.*)
 .text._ZN9Icm20608GD2Ev
                0xffc000c9        0x1 ./src/main.o
                0xffc000c9                Icm20608G::~Icm20608G()
                0xffc000c9                Icm20608G::~Icm20608G()
 .text._ZN7MPU9250D2Ev
                0xffc000ca        0x1 ./src/main.o
                0xffc000ca                MPU9250::~MPU9250()
                0xffc000ca                MPU9250::~MPU9250()
 .text._ZN6TactSwD2Ev
                0xffc000cb        0x1 ./src/main.o
                0xffc000cb                TactSw::~TactSw()
                0xffc000cb                TactSw::~TactSw()
 .text._ZN6UMouseD2Ev
                0xffc000cc        0x1 ./src/main.o
                0xffc000cc                UMouse::~UMouse()
                0xffc000cc                UMouse::~UMouse()
 .text._ZN7GamepadD2Ev
                0xffc000cd        0x1 ./src/main.o
                0xffc000cd                Gamepad::~Gamepad()
                0xffc000cd                Gamepad::~Gamepad()
 .text._ZN5FcLedD2Ev
                0xffc000ce       0x41 ./src/main.o
                0xffc000ce                FcLed::~FcLed()
                0xffc000ce                FcLed::~FcLed()
 *fill*         0xffc0010f        0x1 
 .text._ZN9EventListD2Ev
                0xffc00110       0x30 ./src/main.o
                0xffc00110                EventList::~EventList()
                0xffc00110                EventList::~EventList()
 .text._ZN10WallSensorD2Ev
                0xffc00140       0x80 ./src/main.o
                0xffc00140                WallSensor::~WallSensor()
                0xffc00140                WallSensor::~WallSensor()
 .text._ZN5FcLed11getInstanceEv
                0xffc001c0       0xd0 ./src/main.o
                0xffc001c0                FcLed::getInstance()
 .text.startup  0xffc00290      0x1e8 ./src/main.o
                0xffc00290                main
 .text._ZNSt11_Deque_baseIsSaIsEED2Ev
                0xffc00478       0x30 ./src/main.o
                0xffc00478                std::_Deque_base<short, std::allocator<short> >::~_Deque_base()
                0xffc00478                std::_Deque_base<short, std::allocator<short> >::~_Deque_base()
 .text._ZNSt11_Deque_baseIP13BaseMoveEventSaIS1_EE17_M_initialize_mapEm
                0xffc004a8      0x140 ./src/main.o
                0xffc004a8                std::_Deque_base<BaseMoveEvent*, std::allocator<BaseMoveEvent*> >::_M_initialize_map(unsigned long)
 .text._ZNSt5dequeIsSaIsEE17_M_reallocate_mapEmb
                0xffc005e8       0xf0 ./src/main.o
                0xffc005e8                std::deque<short, std::allocator<short> >::_M_reallocate_map(unsigned long, bool)
 .text._ZN4Stop5isEndEv
                0xffc006d8        0xb ./src/mode/mode_B.o
                0xffc006d8                Stop::isEnd()
 *fill*         0xffc006e3        0x5 
 .text._ZN11SimpleTrape5isEndEv
                0xffc006e8      0x210 ./src/mode/mode_B.o
                0xffc006e8                SimpleTrape::isEnd()
 .text._ZN11SimpleTrape8calcDutyEv
                0xffc008f8      0x440 ./src/mode/mode_B.o
                0xffc008f8                SimpleTrape::calcDuty()
 .text._ZN4Stop8calcDutyEv
                0xffc00d38      0x380 ./src/mode/mode_B.o
                0xffc00d38                Stop::calcDuty()
 .text._ZNSt5dequeIP13BaseMoveEventSaIS1_EE17_M_reallocate_mapEmb
                0xffc010b8       0xf0 ./src/mode/mode_B.o
                0xffc010b8                std::deque<BaseMoveEvent*, std::allocator<BaseMoveEvent*> >::_M_reallocate_map(unsigned long, bool)
 .text._ZNSt5queueIhSt5dequeIhSaIhEEED2Ev
                0xffc011a8       0x30 ./src/peripheral/uart.o
                0xffc011a8                std::queue<unsigned char, std::deque<unsigned char, std::allocator<unsigned char> > >::~queue()
                0xffc011a8                std::queue<unsigned char, std::deque<unsigned char, std::allocator<unsigned char> > >::~queue()
 .text._ZNSt11_Deque_baseIhSaIhEED2Ev
                0xffc011d8       0x30 ./src/peripheral/uart.o
                0xffc011d8                std::_Deque_base<unsigned char, std::allocator<unsigned char> >::~_Deque_base()
                0xffc011d8                std::_Deque_base<unsigned char, std::allocator<unsigned char> >::~_Deque_base()
 .text._ZNSt11_Deque_baseIhSaIhEE17_M_initialize_mapEm
                0xffc01208      0x140 ./src/peripheral/uart.o
                0xffc01208                std::_Deque_base<unsigned char, std::allocator<unsigned char> >::_M_initialize_map(unsigned long)
 .text._ZNSt11_Deque_baseIhSaIhEEC2EOS1_
                0xffc01348       0x88 ./src/peripheral/uart.o
                0xffc01348                std::_Deque_base<unsigned char, std::allocator<unsigned char> >::_Deque_base(std::_Deque_base<unsigned char, std::allocator<unsigned char> >&&)
                0xffc01348                std::_Deque_base<unsigned char, std::allocator<unsigned char> >::_Deque_base(std::_Deque_base<unsigned char, std::allocator<unsigned char> >&&)
 .text._ZNSt5dequeIhSaIhEE17_M_reallocate_mapEmb
                0xffc013d0       0xf0 ./src/peripheral/uart.o
                0xffc013d0                std::deque<unsigned char, std::allocator<unsigned char> >::_M_reallocate_map(unsigned long, bool)
 .text.startup  0xffc014c0       0xe6 ./src/peripheral/uart.o
 *fill*         0xffc015a6        0x2 
 .text._ZNSt5queueIPFvvESt5dequeIS1_SaIS1_EEED2Ev
                0xffc015a8       0x30 ./src/umouse_object/sound.o
                0xffc015a8                std::queue<void (*)(), std::deque<void (*)(), std::allocator<void (*)()> > >::~queue()
                0xffc015a8                std::queue<void (*)(), std::deque<void (*)(), std::allocator<void (*)()> > >::~queue()
 .text._ZN12SoundManagerD2Ev
                0xffc015d8       0x48 ./src/umouse_object/sound.o
                0xffc015d8                SoundManager::~SoundManager()
                0xffc015d8                SoundManager::~SoundManager()
 .text._ZNSt11_Deque_baseI4NoteSaIS0_EED2Ev
                0xffc01620       0x30 ./src/umouse_object/sound.o
                0xffc01620                std::_Deque_base<Note, std::allocator<Note> >::~_Deque_base()
                0xffc01620                std::_Deque_base<Note, std::allocator<Note> >::~_Deque_base()
 .text._ZNSt11_Deque_baseIPFvvESaIS1_EED2Ev
                0xffc01650       0x30 ./src/umouse_object/sound.o
                0xffc01650                std::_Deque_base<void (*)(), std::allocator<void (*)()> >::~_Deque_base()
                0xffc01650                std::_Deque_base<void (*)(), std::allocator<void (*)()> >::~_Deque_base()
 .text._ZNSt11_Deque_baseI4NoteSaIS0_EE17_M_initialize_mapEm
                0xffc01680      0x140 ./src/umouse_object/sound.o
                0xffc01680                std::_Deque_base<Note, std::allocator<Note> >::_M_initialize_map(unsigned long)
 .text._ZN12SoundManagerC2Ev
                0xffc017c0      0x2c8 ./src/umouse_object/sound.o
                0xffc017c0                SoundManager::SoundManager()
                0xffc017c0                SoundManager::SoundManager()
 .text._ZNSt11_Deque_baseIPFvvESaIS1_EE17_M_initialize_mapEm
                0xffc01a88      0x140 ./src/umouse_object/sound.o
                0xffc01a88                std::_Deque_base<void (*)(), std::allocator<void (*)()> >::_M_initialize_map(unsigned long)
 .text.startup  0xffc01bc8      0x160 ./src/umouse_object/sound.o
 .text._ZL23__gxx_exception_cleanup19_Unwind_Reason_CodeP17_Unwind_Exception
                0xffc01d28       0x28 C:\PROGRA~2\GCCFOR~2.201\rx-elf\rx-elf/rx-elf/lib\libstdc++.a(eh_throw.o)
 .text.__cxa_throw
                0xffc01d50       0x58 C:\PROGRA~2\GCCFOR~2.201\rx-elf\rx-elf/rx-elf/lib\libstdc++.a(eh_throw.o)
                0xffc01d50                __cxa_throw
 .text.__cxa_rethrow
                0xffc01da8       0x50 C:\PROGRA~2\GCCFOR~2.201\rx-elf\rx-elf/rx-elf/lib\libstdc++.a(eh_throw.o)
                0xffc01da8                __cxa_rethrow
 .text.__cxa_guard_acquire
                0xffc01df8       0x31 C:\PROGRA~2\GCCFOR~2.201\rx-elf\rx-elf/rx-elf/lib\libstdc++.a(guard.o)
                0xffc01df8                __cxa_guard_acquire
 .text.__cxa_guard_abort
                0xffc01e29        0x4 C:\PROGRA~2\GCCFOR~2.201\rx-elf\rx-elf/rx-elf/lib\libstdc++.a(guard.o)
                0xffc01e29                __cxa_guard_abort
 .text.__cxa_guard_release
                0xffc01e2d        0x7 C:\PROGRA~2\GCCFOR~2.201\rx-elf\rx-elf/rx-elf/lib\libstdc++.a(guard.o)
                0xffc01e2d                __cxa_guard_release
 .text._ZdlPv   0xffc01e34        0x8 C:\PROGRA~2\GCCFOR~2.201\rx-elf\rx-elf/rx-elf/lib\libstdc++.a(del_op.o)
                0xffc01e34                operator delete(void*)
 *fill*         0xffc01e3c        0x4 
 .text._ZL12read_sleb128PKhPl
                0xffc01e40       0x38 C:\PROGRA~2\GCCFOR~2.201\rx-elf\rx-elf/rx-elf/lib\libstdc++.a(eh_personality.o)
 .text._ZL16get_adjusted_ptrPKSt9type_infoS1_PPv
                0xffc01e78       0x38 C:\PROGRA~2\GCCFOR~2.201\rx-elf\rx-elf/rx-elf/lib\libstdc++.a(eh_personality.o)
 .text._ZL28read_encoded_value_with_basehjPKhPj
                0xffc01eb0       0xb0 C:\PROGRA~2\GCCFOR~2.201\rx-elf\rx-elf/rx-elf/lib\libstdc++.a(eh_personality.o)
 .text._ZL15get_ttype_entryP16lsda_header_infom
                0xffc01f60       0x80 C:\PROGRA~2\GCCFOR~2.201\rx-elf\rx-elf/rx-elf/lib\libstdc++.a(eh_personality.o)
 .text._ZL20check_exception_specP16lsda_header_infoPKSt9type_infoPvl
                0xffc01fe0       0x58 C:\PROGRA~2\GCCFOR~2.201\rx-elf\rx-elf/rx-elf/lib\libstdc++.a(eh_personality.o)
 .text._ZL21base_of_encoded_valuehP15_Unwind_Context
                0xffc02038       0x48 C:\PROGRA~2\GCCFOR~2.201\rx-elf\rx-elf/rx-elf/lib\libstdc++.a(eh_personality.o)
 .text._ZL17parse_lsda_headerP15_Unwind_ContextPKhP16lsda_header_info
                0xffc02080       0xa0 C:\PROGRA~2\GCCFOR~2.201\rx-elf\rx-elf/rx-elf/lib\libstdc++.a(eh_personality.o)
 .text.__gxx_personality_sj0
                0xffc02120      0x370 C:\PROGRA~2\GCCFOR~2.201\rx-elf\rx-elf/rx-elf/lib\libstdc++.a(eh_personality.o)
                0xffc02120                __gxx_personality_sj0
 .text.__cxa_call_unexpected
                0xffc02490       0xf8 C:\PROGRA~2\GCCFOR~2.201\rx-elf\rx-elf/rx-elf/lib\libstdc++.a(eh_personality.o)
                0xffc02490                __cxa_call_unexpected
 .text._ZN9__gnu_cxx20recursive_init_errorD2Ev
                0xffc02588        0xa C:\PROGRA~2\GCCFOR~2.201\rx-elf\rx-elf/rx-elf/lib\libstdc++.a(guard_error.o)
                0xffc02588                __gnu_cxx::recursive_init_error::~recursive_init_error()
                0xffc02588                __gnu_cxx::recursive_init_error::~recursive_init_error()
 .text._ZN9__gnu_cxx20recursive_init_errorD0Ev
                0xffc02592       0x16 C:\PROGRA~2\GCCFOR~2.201\rx-elf\rx-elf/rx-elf/lib\libstdc++.a(guard_error.o)
                0xffc02592                __gnu_cxx::recursive_init_error::~recursive_init_error()
 .text._ZN10__cxxabiv120__si_class_type_infoD2Ev
                0xffc025a8        0xa C:\PROGRA~2\GCCFOR~2.201\rx-elf\rx-elf/rx-elf/lib\libstdc++.a(si_class_type_info.o)
                0xffc025a8                __cxxabiv1::__si_class_type_info::~__si_class_type_info()
                0xffc025a8                __cxxabiv1::__si_class_type_info::~__si_class_type_info()
 .text._ZN10__cxxabiv120__si_class_type_infoD0Ev
                0xffc025b2       0x16 C:\PROGRA~2\GCCFOR~2.201\rx-elf\rx-elf/rx-elf/lib\libstdc++.a(si_class_type_info.o)
                0xffc025b2                __cxxabiv1::__si_class_type_info::~__si_class_type_info()
 .text._ZNK10__cxxabiv120__si_class_type_info12__do_dyncastElNS_17__class_type_info10__sub_kindEPKS1_PKvS4_S6_RNS1_16__dyncast_resultE
                0xffc025c8       0xb8 C:\PROGRA~2\GCCFOR~2.201\rx-elf\rx-elf/rx-elf/lib\libstdc++.a(si_class_type_info.o)
                0xffc025c8                __cxxabiv1::__si_class_type_info::__do_dyncast(long, __cxxabiv1::__class_type_info::__sub_kind, __cxxabiv1::__class_type_info const*, void const*, __cxxabiv1::__class_type_info const*, void const*, __cxxabiv1::__class_type_info::__dyncast_result&) const
 .text._ZNK10__cxxabiv120__si_class_type_info20__do_find_public_srcElPKvPKNS_17__class_type_infoES2_
                0xffc02680       0x50 C:\PROGRA~2\GCCFOR~2.201\rx-elf\rx-elf/rx-elf/lib\libstdc++.a(si_class_type_info.o)
                0xffc02680                __cxxabiv1::__si_class_type_info::__do_find_public_src(long, void const*, __cxxabiv1::__class_type_info const*, void const*) const
 .text._ZNK10__cxxabiv120__si_class_type_info11__do_upcastEPKNS_17__class_type_infoEPKvRNS1_15__upcast_resultE
                0xffc026d0       0x30 C:\PROGRA~2\GCCFOR~2.201\rx-elf\rx-elf/rx-elf/lib\libstdc++.a(si_class_type_info.o)
                0xffc026d0                __cxxabiv1::__si_class_type_info::__do_upcast(__cxxabiv1::__class_type_info const*, void const*, __cxxabiv1::__class_type_info::__upcast_result&) const
 .text._ZN9__gnu_cxx27__verbose_terminate_handlerEv
                0xffc02700      0x1c0 C:\PROGRA~2\GCCFOR~2.201\rx-elf\rx-elf/rx-elf/lib\libstdc++.a(vterminate.o)
                0xffc02700                __gnu_cxx::__verbose_terminate_handler()
 .text.__cxa_call_terminate
                0xffc028c0       0x38 C:\PROGRA~2\GCCFOR~2.201\rx-elf\rx-elf/rx-elf/lib\libstdc++.a(eh_call.o)
                0xffc028c0                __cxa_call_terminate
 .text.__cxa_get_exception_ptr
                0xffc028f8        0x6 C:\PROGRA~2\GCCFOR~2.201\rx-elf\rx-elf/rx-elf/lib\libstdc++.a(eh_catch.o)
                0xffc028f8                __cxa_get_exception_ptr
 *fill*         0xffc028fe        0x2 
 .text.__cxa_begin_catch
                0xffc02900       0x60 C:\PROGRA~2\GCCFOR~2.201\rx-elf\rx-elf/rx-elf/lib\libstdc++.a(eh_catch.o)
                0xffc02900                __cxa_begin_catch
 .text.__cxa_end_catch
                0xffc02960       0x68 C:\PROGRA~2\GCCFOR~2.201\rx-elf\rx-elf/rx-elf/lib\libstdc++.a(eh_catch.o)
                0xffc02960                __cxa_end_catch
 .text._ZSt18uncaught_exceptionv
                0xffc029c8        0xc C:\PROGRA~2\GCCFOR~2.201\rx-elf\rx-elf/rx-elf/lib\libstdc++.a(eh_catch.o)
                0xffc029c8                std::uncaught_exception()
 .text.__cxa_pure_virtual
                0xffc029d4       0x13 C:\PROGRA~2\GCCFOR~2.201\rx-elf\rx-elf/rx-elf/lib\libstdc++.a(pure.o)
                0xffc029d4                __cxa_pure_virtual
 .text.__cxa_deleted_virtual
                0xffc029e7       0x13 C:\PROGRA~2\GCCFOR~2.201\rx-elf\rx-elf/rx-elf/lib\libstdc++.a(pure.o)
                0xffc029e7                __cxa_deleted_virtual
 .text._ZNSt9exceptionD2Ev
                0xffc029fa        0x7 C:\PROGRA~2\GCCFOR~2.201\rx-elf\rx-elf/rx-elf/lib\libstdc++.a(eh_exception.o)
                0xffc029fa                std::exception::~exception()
                0xffc029fa                std::exception::~exception()
 .text._ZNSt13bad_exceptionD2Ev
                0xffc02a01        0x7 C:\PROGRA~2\GCCFOR~2.201\rx-elf\rx-elf/rx-elf/lib\libstdc++.a(eh_exception.o)
                0xffc02a01                std::bad_exception::~bad_exception()
                0xffc02a01                std::bad_exception::~bad_exception()
 .text._ZN10__cxxabiv115__forced_unwindD2Ev
                0xffc02a08        0x7 C:\PROGRA~2\GCCFOR~2.201\rx-elf\rx-elf/rx-elf/lib\libstdc++.a(eh_exception.o)
                0xffc02a08                __cxxabiv1::__forced_unwind::~__forced_unwind()
                0xffc02a08                __cxxabiv1::__forced_unwind::~__forced_unwind()
 .text._ZN10__cxxabiv119__foreign_exceptionD2Ev
                0xffc02a0f        0x7 C:\PROGRA~2\GCCFOR~2.201\rx-elf\rx-elf/rx-elf/lib\libstdc++.a(eh_exception.o)
                0xffc02a0f                __cxxabiv1::__foreign_exception::~__foreign_exception()
                0xffc02a0f                __cxxabiv1::__foreign_exception::~__foreign_exception()
 .text._ZNKSt9exception4whatEv
                0xffc02a16        0x7 C:\PROGRA~2\GCCFOR~2.201\rx-elf\rx-elf/rx-elf/lib\libstdc++.a(eh_exception.o)
                0xffc02a16                std::exception::what() const
 .text._ZNKSt13bad_exception4whatEv
                0xffc02a1d        0x7 C:\PROGRA~2\GCCFOR~2.201\rx-elf\rx-elf/rx-elf/lib\libstdc++.a(eh_exception.o)
                0xffc02a1d                std::bad_exception::what() const
 .text._ZNSt9exceptionD0Ev
                0xffc02a24        0xa C:\PROGRA~2\GCCFOR~2.201\rx-elf\rx-elf/rx-elf/lib\libstdc++.a(eh_exception.o)
                0xffc02a24                std::exception::~exception()
 .text._ZNSt13bad_exceptionD0Ev
                0xffc02a2e        0xa C:\PROGRA~2\GCCFOR~2.201\rx-elf\rx-elf/rx-elf/lib\libstdc++.a(eh_exception.o)
                0xffc02a2e                std::bad_exception::~bad_exception()
 .text._ZN10__cxxabiv115__forced_unwindD0Ev
                0xffc02a38        0xa C:\PROGRA~2\GCCFOR~2.201\rx-elf\rx-elf/rx-elf/lib\libstdc++.a(eh_exception.o)
                0xffc02a38                __cxxabiv1::__forced_unwind::~__forced_unwind()
 .text._ZN10__cxxabiv119__foreign_exceptionD0Ev
                0xffc02a42        0xa C:\PROGRA~2\GCCFOR~2.201\rx-elf\rx-elf/rx-elf/lib\libstdc++.a(eh_exception.o)
                0xffc02a42                __cxxabiv1::__foreign_exception::~__foreign_exception()
 *fill*         0xffc02a4c        0x4 
 .text._Znwm    0xffc02a50       0xb0 C:\PROGRA~2\GCCFOR~2.201\rx-elf\rx-elf/rx-elf/lib\libstdc++.a(new_op.o)
                0xffc02a50                operator new(unsigned long)
 .text._ZN10__cxxabiv111__terminateEPFvvE
                0xffc02b00       0x76 C:\PROGRA~2\GCCFOR~2.201\rx-elf\rx-elf/rx-elf/lib\libstdc++.a(eh_terminate.o)
                0xffc02b00                __cxxabiv1::__terminate(void (*)())
 .text._ZSt9terminatev
                0xffc02b76        0xc C:\PROGRA~2\GCCFOR~2.201\rx-elf\rx-elf/rx-elf/lib\libstdc++.a(eh_terminate.o)
                0xffc02b76                std::terminate()
 .text._ZN10__cxxabiv112__unexpectedEPFvvE
                0xffc02b82        0x6 C:\PROGRA~2\GCCFOR~2.201\rx-elf\rx-elf/rx-elf/lib\libstdc++.a(eh_terminate.o)
                0xffc02b82                __cxxabiv1::__unexpected(void (*)())
 .text._ZSt10unexpectedv
                0xffc02b88        0xc C:\PROGRA~2\GCCFOR~2.201\rx-elf\rx-elf/rx-elf/lib\libstdc++.a(eh_terminate.o)
                0xffc02b88                std::unexpected()
 .text._ZSt13set_terminatePFvvE
                0xffc02b94        0xb C:\PROGRA~2\GCCFOR~2.201\rx-elf\rx-elf/rx-elf/lib\libstdc++.a(eh_terminate.o)
                0xffc02b94                std::set_terminate(void (*)())
 .text._ZSt14set_unexpectedPFvvE
                0xffc02b9f        0xb C:\PROGRA~2\GCCFOR~2.201\rx-elf\rx-elf/rx-elf/lib\libstdc++.a(eh_terminate.o)
                0xffc02b9f                std::set_unexpected(void (*)())
 *fill*         0xffc02baa        0x6 
 .text.__cxa_allocate_exception
                0xffc02bb0       0x50 C:\PROGRA~2\GCCFOR~2.201\rx-elf\rx-elf/rx-elf/lib\libstdc++.a(eh_alloc.o)
                0xffc02bb0                __cxa_allocate_exception
 .text.__cxa_free_exception
                0xffc02c00       0x38 C:\PROGRA~2\GCCFOR~2.201\rx-elf\rx-elf/rx-elf/lib\libstdc++.a(eh_alloc.o)
                0xffc02c00                __cxa_free_exception
 .text.__cxa_allocate_dependent_exception
                0xffc02c38       0x48 C:\PROGRA~2\GCCFOR~2.201\rx-elf\rx-elf/rx-elf/lib\libstdc++.a(eh_alloc.o)
                0xffc02c38                __cxa_allocate_dependent_exception
 .text.__cxa_free_dependent_exception
                0xffc02c80       0x40 C:\PROGRA~2\GCCFOR~2.201\rx-elf\rx-elf/rx-elf/lib\libstdc++.a(eh_alloc.o)
                0xffc02c80                __cxa_free_dependent_exception
 .text._ZNK10__cxxabiv117__class_type_info11__do_upcastEPKS0_PPv
                0xffc02cc0       0x36 C:\PROGRA~2\GCCFOR~2.201\rx-elf\rx-elf/rx-elf/lib\libstdc++.a(class_type_info.o)
                0xffc02cc0                __cxxabiv1::__class_type_info::__do_upcast(__cxxabiv1::__class_type_info const*, void**) const
 .text._ZNK10__cxxabiv117__class_type_info20__do_find_public_srcElPKvPKS0_S2_
                0xffc02cf6        0xe C:\PROGRA~2\GCCFOR~2.201\rx-elf\rx-elf/rx-elf/lib\libstdc++.a(class_type_info.o)
                0xffc02cf6                __cxxabiv1::__class_type_info::__do_find_public_src(long, void const*, __cxxabiv1::__class_type_info const*, void const*) const
 .text._ZN10__cxxabiv117__class_type_infoD2Ev
                0xffc02d04        0xa C:\PROGRA~2\GCCFOR~2.201\rx-elf\rx-elf/rx-elf/lib\libstdc++.a(class_type_info.o)
                0xffc02d04                __cxxabiv1::__class_type_info::~__class_type_info()
                0xffc02d04                __cxxabiv1::__class_type_info::~__class_type_info()
 .text._ZN10__cxxabiv117__class_type_infoD0Ev
                0xffc02d0e       0x16 C:\PROGRA~2\GCCFOR~2.201\rx-elf\rx-elf/rx-elf/lib\libstdc++.a(class_type_info.o)
                0xffc02d0e                __cxxabiv1::__class_type_info::~__class_type_info()
 *fill*         0xffc02d24        0x4 
 .text._ZNK10__cxxabiv117__class_type_info11__do_upcastEPKS0_PKvRNS0_15__upcast_resultE
                0xffc02d28       0x38 C:\PROGRA~2\GCCFOR~2.201\rx-elf\rx-elf/rx-elf/lib\libstdc++.a(class_type_info.o)
                0xffc02d28                __cxxabiv1::__class_type_info::__do_upcast(__cxxabiv1::__class_type_info const*, void const*, __cxxabiv1::__class_type_info::__upcast_result&) const
 .text._ZNK10__cxxabiv117__class_type_info10__do_catchEPKSt9type_infoPPvj
                0xffc02d60       0x58 C:\PROGRA~2\GCCFOR~2.201\rx-elf\rx-elf/rx-elf/lib\libstdc++.a(class_type_info.o)
                0xffc02d60                __cxxabiv1::__class_type_info::__do_catch(std::type_info const*, void**, unsigned int) const
 .text._ZNK10__cxxabiv117__class_type_info12__do_dyncastElNS0_10__sub_kindEPKS0_PKvS3_S5_RNS0_16__dyncast_resultE
                0xffc02db8       0x80 C:\PROGRA~2\GCCFOR~2.201\rx-elf\rx-elf/rx-elf/lib\libstdc++.a(class_type_info.o)
                0xffc02db8                __cxxabiv1::__class_type_info::__do_dyncast(long, __cxxabiv1::__class_type_info::__sub_kind, __cxxabiv1::__class_type_info const*, void const*, __cxxabiv1::__class_type_info const*, void const*, __cxxabiv1::__class_type_info::__dyncast_result&) const
 .text._ZSt21__throw_bad_exceptionv
                0xffc02e38       0x1c C:\PROGRA~2\GCCFOR~2.201\rx-elf\rx-elf/rx-elf/lib\libstdc++.a(functexcept.o)
                0xffc02e38                std::__throw_bad_exception()
 .text._ZSt17__throw_bad_allocv
                0xffc02e54       0x1c C:\PROGRA~2\GCCFOR~2.201\rx-elf\rx-elf/rx-elf/lib\libstdc++.a(functexcept.o)
                0xffc02e54                std::__throw_bad_alloc()
 .text._ZSt16__throw_bad_castv
                0xffc02e70       0x1c C:\PROGRA~2\GCCFOR~2.201\rx-elf\rx-elf/rx-elf/lib\libstdc++.a(functexcept.o)
                0xffc02e70                std::__throw_bad_cast()
 .text._ZSt18__throw_bad_typeidv
                0xffc02e8c       0x1c C:\PROGRA~2\GCCFOR~2.201\rx-elf\rx-elf/rx-elf/lib\libstdc++.a(functexcept.o)
                0xffc02e8c                std::__throw_bad_typeid()
 .text._ZSt19__throw_logic_errorPKc
                0xffc02ea8       0x98 C:\PROGRA~2\GCCFOR~2.201\rx-elf\rx-elf/rx-elf/lib\libstdc++.a(functexcept.o)
                0xffc02ea8                std::__throw_logic_error(char const*)
 .text._ZSt20__throw_domain_errorPKc
                0xffc02f40       0x98 C:\PROGRA~2\GCCFOR~2.201\rx-elf\rx-elf/rx-elf/lib\libstdc++.a(functexcept.o)
                0xffc02f40                std::__throw_domain_error(char const*)
 .text._ZSt24__throw_invalid_argumentPKc
                0xffc02fd8       0x98 C:\PROGRA~2\GCCFOR~2.201\rx-elf\rx-elf/rx-elf/lib\libstdc++.a(functexcept.o)
                0xffc02fd8                std::__throw_invalid_argument(char const*)
 .text._ZSt20__throw_length_errorPKc
                0xffc03070       0x98 C:\PROGRA~2\GCCFOR~2.201\rx-elf\rx-elf/rx-elf/lib\libstdc++.a(functexcept.o)
                0xffc03070                std::__throw_length_error(char const*)
 .text._ZSt20__throw_out_of_rangePKc
                0xffc03108       0x98 C:\PROGRA~2\GCCFOR~2.201\rx-elf\rx-elf/rx-elf/lib\libstdc++.a(functexcept.o)
                0xffc03108                std::__throw_out_of_range(char const*)
 .text._ZSt21__throw_runtime_errorPKc
                0xffc031a0       0x98 C:\PROGRA~2\GCCFOR~2.201\rx-elf\rx-elf/rx-elf/lib\libstdc++.a(functexcept.o)
                0xffc031a0                std::__throw_runtime_error(char const*)
 .text._ZSt19__throw_range_errorPKc
                0xffc03238       0x98 C:\PROGRA~2\GCCFOR~2.201\rx-elf\rx-elf/rx-elf/lib\libstdc++.a(functexcept.o)
                0xffc03238                std::__throw_range_error(char const*)
 .text._ZSt22__throw_overflow_errorPKc
                0xffc032d0       0x98 C:\PROGRA~2\GCCFOR~2.201\rx-elf\rx-elf/rx-elf/lib\libstdc++.a(functexcept.o)
                0xffc032d0                std::__throw_overflow_error(char const*)
 .text._ZSt23__throw_underflow_errorPKc
                0xffc03368       0x98 C:\PROGRA~2\GCCFOR~2.201\rx-elf\rx-elf/rx-elf/lib\libstdc++.a(functexcept.o)
                0xffc03368                std::__throw_underflow_error(char const*)
 .text._ZSt19__throw_ios_failurePKc
                0xffc03400       0x7a C:\PROGRA~2\GCCFOR~2.201\rx-elf\rx-elf/rx-elf/lib\libstdc++.a(functexcept.o)
                0xffc03400                std::__throw_ios_failure(char const*)
 *fill*         0xffc0347a        0x6 
 .text._ZSt20__throw_system_errori
                0xffc03480       0xb0 C:\PROGRA~2\GCCFOR~2.201\rx-elf\rx-elf/rx-elf/lib\libstdc++.a(functexcept.o)
                0xffc03480                std::__throw_system_error(int)
 .text._ZSt20__throw_future_errori
                0xffc03530       0xb8 C:\PROGRA~2\GCCFOR~2.201\rx-elf\rx-elf/rx-elf/lib\libstdc++.a(functexcept.o)
                0xffc03530                std::__throw_future_error(int)
 .text._ZSt25__throw_bad_function_callv
                0xffc035e8       0x1c C:\PROGRA~2\GCCFOR~2.201\rx-elf\rx-elf/rx-elf/lib\libstdc++.a(functexcept.o)
                0xffc035e8                std::__throw_bad_function_call()
 .text._ZSt19__throw_regex_errorNSt15regex_constants10error_typeE
                0xffc03604       0x61 C:\PROGRA~2\GCCFOR~2.201\rx-elf\rx-elf/rx-elf/lib\libstdc++.a(functexcept.o)
                0xffc03604                std::__throw_regex_error(std::regex_constants::error_type)
 .text._ZNKSt17bad_function_call4whatEv
                0xffc03665        0x7 C:\PROGRA~2\GCCFOR~2.201\rx-elf\rx-elf/rx-elf/lib\libstdc++.a(functional.o)
                0xffc03665                std::bad_function_call::what() const
 .text._ZNSt17bad_function_callD2Ev
                0xffc0366c        0xa C:\PROGRA~2\GCCFOR~2.201\rx-elf\rx-elf/rx-elf/lib\libstdc++.a(functional.o)
                0xffc0366c                std::bad_function_call::~bad_function_call()
                0xffc0366c                std::bad_function_call::~bad_function_call()
 .text._ZNSt17bad_function_callD0Ev
                0xffc03676       0x16 C:\PROGRA~2\GCCFOR~2.201\rx-elf\rx-elf/rx-elf/lib\libstdc++.a(functional.o)
                0xffc03676                std::bad_function_call::~bad_function_call()
 .text.__cxa_get_globals_fast
                0xffc0368c        0x7 C:\PROGRA~2\GCCFOR~2.201\rx-elf\rx-elf/rx-elf/lib\libstdc++.a(eh_globals.o)
                0xffc0368c                __cxa_get_globals_fast
 .text.__cxa_get_globals
                0xffc03693        0x7 C:\PROGRA~2\GCCFOR~2.201\rx-elf\rx-elf/rx-elf/lib\libstdc++.a(eh_globals.o)
                0xffc03693                __cxa_get_globals
 .text._ZNKSt10bad_typeid4whatEv
                0xffc0369a        0x7 C:\PROGRA~2\GCCFOR~2.201\rx-elf\rx-elf/rx-elf/lib\libstdc++.a(bad_typeid.o)
                0xffc0369a                std::bad_typeid::what() const
 .text._ZNSt10bad_typeidD2Ev
                0xffc036a1        0xa C:\PROGRA~2\GCCFOR~2.201\rx-elf\rx-elf/rx-elf/lib\libstdc++.a(bad_typeid.o)
                0xffc036a1                std::bad_typeid::~bad_typeid()
                0xffc036a1                std::bad_typeid::~bad_typeid()
 .text._ZNSt10bad_typeidD0Ev
                0xffc036ab       0x16 C:\PROGRA~2\GCCFOR~2.201\rx-elf\rx-elf/rx-elf/lib\libstdc++.a(bad_typeid.o)
                0xffc036ab                std::bad_typeid::~bad_typeid()
 .text._ZNKSt9bad_alloc4whatEv
                0xffc036c1        0x7 C:\PROGRA~2\GCCFOR~2.201\rx-elf\rx-elf/rx-elf/lib\libstdc++.a(bad_alloc.o)
                0xffc036c1                std::bad_alloc::what() const
 .text._ZNSt9bad_allocD2Ev
                0xffc036c8        0xa C:\PROGRA~2\GCCFOR~2.201\rx-elf\rx-elf/rx-elf/lib\libstdc++.a(bad_alloc.o)
                0xffc036c8                std::bad_alloc::~bad_alloc()
                0xffc036c8                std::bad_alloc::~bad_alloc()
 .text._ZNSt9bad_allocD0Ev
                0xffc036d2       0x16 C:\PROGRA~2\GCCFOR~2.201\rx-elf\rx-elf/rx-elf/lib\libstdc++.a(bad_alloc.o)
                0xffc036d2                std::bad_alloc::~bad_alloc()
 .text.__cxa_current_exception_type
                0xffc036e8       0x1b C:\PROGRA~2\GCCFOR~2.201\rx-elf\rx-elf/rx-elf/lib\libstdc++.a(eh_type.o)
                0xffc036e8                __cxa_current_exception_type
 .text._ZNKSt8bad_cast4whatEv
                0xffc03703        0x7 C:\PROGRA~2\GCCFOR~2.201\rx-elf\rx-elf/rx-elf/lib\libstdc++.a(bad_cast.o)
                0xffc03703                std::bad_cast::what() const
 .text._ZNSt8bad_castD2Ev
                0xffc0370a        0xa C:\PROGRA~2\GCCFOR~2.201\rx-elf\rx-elf/rx-elf/lib\libstdc++.a(bad_cast.o)
                0xffc0370a                std::bad_cast::~bad_cast()
                0xffc0370a                std::bad_cast::~bad_cast()
 .text._ZNSt8bad_castD0Ev
                0xffc03714       0x16 C:\PROGRA~2\GCCFOR~2.201\rx-elf\rx-elf/rx-elf/lib\libstdc++.a(bad_cast.o)
                0xffc03714                std::bad_cast::~bad_cast()
 .text._ZNSt9type_infoD2Ev
                0xffc0372a        0x7 C:\PROGRA~2\GCCFOR~2.201\rx-elf\rx-elf/rx-elf/lib\libstdc++.a(tinfo.o)
                0xffc0372a                std::type_info::~type_info()
                0xffc0372a                std::type_info::~type_info()
 .text._ZNKSt9type_info14__is_pointer_pEv
                0xffc03731        0x3 C:\PROGRA~2\GCCFOR~2.201\rx-elf\rx-elf/rx-elf/lib\libstdc++.a(tinfo.o)
                0xffc03731                std::type_info::__is_pointer_p() const
 .text._ZNKSt9type_info15__is_function_pEv
                0xffc03734        0x3 C:\PROGRA~2\GCCFOR~2.201\rx-elf\rx-elf/rx-elf/lib\libstdc++.a(tinfo.o)
                0xffc03734                std::type_info::__is_function_p() const
 .text._ZNKSt9type_info11__do_upcastEPKN10__cxxabiv117__class_type_infoEPPv
                0xffc03737        0x3 C:\PROGRA~2\GCCFOR~2.201\rx-elf\rx-elf/rx-elf/lib\libstdc++.a(tinfo.o)
                0xffc03737                std::type_info::__do_upcast(__cxxabiv1::__class_type_info const*, void**) const
 .text._ZNSt9type_infoD0Ev
                0xffc0373a        0xa C:\PROGRA~2\GCCFOR~2.201\rx-elf\rx-elf/rx-elf/lib\libstdc++.a(tinfo.o)
                0xffc0373a                std::type_info::~type_info()
 .text._ZNKSt9type_info10__do_catchEPKS_PPvj
                0xffc03744       0x33 C:\PROGRA~2\GCCFOR~2.201\rx-elf\rx-elf/rx-elf/lib\libstdc++.a(tinfo.o)
                0xffc03744                std::type_info::__do_catch(std::type_info const*, void**, unsigned int) const
 .text._ZSt15set_new_handlerPFvvE
                0xffc03777        0xb C:\PROGRA~2\GCCFOR~2.201\rx-elf\rx-elf/rx-elf/lib\libstdc++.a(new_handler.o)
                0xffc03777                std::set_new_handler(void (*)())
 .text._ZNKSt11logic_error4whatEv
                0xffc03782        0x3 C:\PROGRA~2\GCCFOR~2.201\rx-elf\rx-elf/rx-elf/lib\libstdc++.a(stdexcept.o)
                0xffc03782                std::logic_error::what() const
 .text._ZNKSt13runtime_error4whatEv
                0xffc03785        0x3 C:\PROGRA~2\GCCFOR~2.201\rx-elf\rx-elf/rx-elf/lib\libstdc++.a(stdexcept.o)
                0xffc03785                std::runtime_error::what() const
 .text._ZNSt11logic_errorD2Ev
                0xffc03788       0x38 C:\PROGRA~2\GCCFOR~2.201\rx-elf\rx-elf/rx-elf/lib\libstdc++.a(stdexcept.o)
                0xffc03788                std::logic_error::~logic_error()
                0xffc03788                std::logic_error::~logic_error()
 .text._ZNSt11logic_errorD0Ev
                0xffc037c0       0x10 C:\PROGRA~2\GCCFOR~2.201\rx-elf\rx-elf/rx-elf/lib\libstdc++.a(stdexcept.o)
                0xffc037c0                std::logic_error::~logic_error()
 .text._ZNSt12domain_errorD2Ev
                0xffc037d0        0xa C:\PROGRA~2\GCCFOR~2.201\rx-elf\rx-elf/rx-elf/lib\libstdc++.a(stdexcept.o)
                0xffc037d0                std::domain_error::~domain_error()
                0xffc037d0                std::domain_error::~domain_error()
 .text._ZNSt12domain_errorD0Ev
                0xffc037da       0x16 C:\PROGRA~2\GCCFOR~2.201\rx-elf\rx-elf/rx-elf/lib\libstdc++.a(stdexcept.o)
                0xffc037da                std::domain_error::~domain_error()
 .text._ZNSt16invalid_argumentD2Ev
                0xffc037f0        0xa C:\PROGRA~2\GCCFOR~2.201\rx-elf\rx-elf/rx-elf/lib\libstdc++.a(stdexcept.o)
                0xffc037f0                std::invalid_argument::~invalid_argument()
                0xffc037f0                std::invalid_argument::~invalid_argument()
 .text._ZNSt16invalid_argumentD0Ev
                0xffc037fa       0x16 C:\PROGRA~2\GCCFOR~2.201\rx-elf\rx-elf/rx-elf/lib\libstdc++.a(stdexcept.o)
                0xffc037fa                std::invalid_argument::~invalid_argument()
 .text._ZNSt12length_errorD2Ev
                0xffc03810        0xa C:\PROGRA~2\GCCFOR~2.201\rx-elf\rx-elf/rx-elf/lib\libstdc++.a(stdexcept.o)
                0xffc03810                std::length_error::~length_error()
                0xffc03810                std::length_error::~length_error()
 .text._ZNSt12length_errorD0Ev
                0xffc0381a       0x16 C:\PROGRA~2\GCCFOR~2.201\rx-elf\rx-elf/rx-elf/lib\libstdc++.a(stdexcept.o)
                0xffc0381a                std::length_error::~length_error()
 .text._ZNSt12out_of_rangeD2Ev
                0xffc03830        0xa C:\PROGRA~2\GCCFOR~2.201\rx-elf\rx-elf/rx-elf/lib\libstdc++.a(stdexcept.o)
                0xffc03830                std::out_of_range::~out_of_range()
                0xffc03830                std::out_of_range::~out_of_range()
 .text._ZNSt12out_of_rangeD0Ev
                0xffc0383a       0x16 C:\PROGRA~2\GCCFOR~2.201\rx-elf\rx-elf/rx-elf/lib\libstdc++.a(stdexcept.o)
                0xffc0383a                std::out_of_range::~out_of_range()
 .text._ZNSt13runtime_errorD2Ev
                0xffc03850       0x38 C:\PROGRA~2\GCCFOR~2.201\rx-elf\rx-elf/rx-elf/lib\libstdc++.a(stdexcept.o)
                0xffc03850                std::runtime_error::~runtime_error()
                0xffc03850                std::runtime_error::~runtime_error()
 .text._ZNSt13runtime_errorD0Ev
                0xffc03888       0x10 C:\PROGRA~2\GCCFOR~2.201\rx-elf\rx-elf/rx-elf/lib\libstdc++.a(stdexcept.o)
                0xffc03888                std::runtime_error::~runtime_error()
 .text._ZNSt11range_errorD2Ev
                0xffc03898        0xa C:\PROGRA~2\GCCFOR~2.201\rx-elf\rx-elf/rx-elf/lib\libstdc++.a(stdexcept.o)
                0xffc03898                std::range_error::~range_error()
                0xffc03898                std::range_error::~range_error()
 .text._ZNSt11range_errorD0Ev
                0xffc038a2       0x16 C:\PROGRA~2\GCCFOR~2.201\rx-elf\rx-elf/rx-elf/lib\libstdc++.a(stdexcept.o)
                0xffc038a2                std::range_error::~range_error()
 .text._ZNSt14overflow_errorD2Ev
                0xffc038b8        0xa C:\PROGRA~2\GCCFOR~2.201\rx-elf\rx-elf/rx-elf/lib\libstdc++.a(stdexcept.o)
                0xffc038b8                std::overflow_error::~overflow_error()
                0xffc038b8                std::overflow_error::~overflow_error()
 .text._ZNSt14overflow_errorD0Ev
                0xffc038c2       0x16 C:\PROGRA~2\GCCFOR~2.201\rx-elf\rx-elf/rx-elf/lib\libstdc++.a(stdexcept.o)
                0xffc038c2                std::overflow_error::~overflow_error()
 .text._ZNSt15underflow_errorD2Ev
                0xffc038d8        0xa C:\PROGRA~2\GCCFOR~2.201\rx-elf\rx-elf/rx-elf/lib\libstdc++.a(stdexcept.o)
                0xffc038d8                std::underflow_error::~underflow_error()
                0xffc038d8                std::underflow_error::~underflow_error()
 .text._ZNSt15underflow_errorD0Ev
                0xffc038e2       0x16 C:\PROGRA~2\GCCFOR~2.201\rx-elf\rx-elf/rx-elf/lib\libstdc++.a(stdexcept.o)
                0xffc038e2                std::underflow_error::~underflow_error()
 .text._ZNSt11logic_errorC2ERKSs
                0xffc038f8       0x59 C:\PROGRA~2\GCCFOR~2.201\rx-elf\rx-elf/rx-elf/lib\libstdc++.a(stdexcept.o)
                0xffc038f8                std::logic_error::logic_error(std::string const&)
                0xffc038f8                std::logic_error::logic_error(std::string const&)
 .text._ZNSt12domain_errorC2ERKSs
                0xffc03951       0x11 C:\PROGRA~2\GCCFOR~2.201\rx-elf\rx-elf/rx-elf/lib\libstdc++.a(stdexcept.o)
                0xffc03951                std::domain_error::domain_error(std::string const&)
                0xffc03951                std::domain_error::domain_error(std::string const&)
 .text._ZNSt16invalid_argumentC2ERKSs
                0xffc03962       0x11 C:\PROGRA~2\GCCFOR~2.201\rx-elf\rx-elf/rx-elf/lib\libstdc++.a(stdexcept.o)
                0xffc03962                std::invalid_argument::invalid_argument(std::string const&)
                0xffc03962                std::invalid_argument::invalid_argument(std::string const&)
 .text._ZNSt12length_errorC2ERKSs
                0xffc03973       0x11 C:\PROGRA~2\GCCFOR~2.201\rx-elf\rx-elf/rx-elf/lib\libstdc++.a(stdexcept.o)
                0xffc03973                std::length_error::length_error(std::string const&)
                0xffc03973                std::length_error::length_error(std::string const&)
 .text._ZNSt12out_of_rangeC2ERKSs
                0xffc03984       0x11 C:\PROGRA~2\GCCFOR~2.201\rx-elf\rx-elf/rx-elf/lib\libstdc++.a(stdexcept.o)
                0xffc03984                std::out_of_range::out_of_range(std::string const&)
                0xffc03984                std::out_of_range::out_of_range(std::string const&)
 .text._ZNSt13runtime_errorC2ERKSs
                0xffc03995       0x59 C:\PROGRA~2\GCCFOR~2.201\rx-elf\rx-elf/rx-elf/lib\libstdc++.a(stdexcept.o)
                0xffc03995                std::runtime_error::runtime_error(std::string const&)
                0xffc03995                std::runtime_error::runtime_error(std::string const&)
 .text._ZNSt11range_errorC2ERKSs
                0xffc039ee       0x11 C:\PROGRA~2\GCCFOR~2.201\rx-elf\rx-elf/rx-elf/lib\libstdc++.a(stdexcept.o)
                0xffc039ee                std::range_error::range_error(std::string const&)
                0xffc039ee                std::range_error::range_error(std::string const&)
 .text._ZNSt14overflow_errorC2ERKSs
                0xffc039ff       0x11 C:\PROGRA~2\GCCFOR~2.201\rx-elf\rx-elf/rx-elf/lib\libstdc++.a(stdexcept.o)
                0xffc039ff                std::overflow_error::overflow_error(std::string const&)
                0xffc039ff                std::overflow_error::overflow_error(std::string const&)
 .text._ZNSt15underflow_errorC2ERKSs
                0xffc03a10       0x11 C:\PROGRA~2\GCCFOR~2.201\rx-elf\rx-elf/rx-elf/lib\libstdc++.a(stdexcept.o)
                0xffc03a10                std::underflow_error::underflow_error(std::string const&)
                0xffc03a10                std::underflow_error::underflow_error(std::string const&)
 .text._ZNKSt8ios_base7failure4whatEv
                0xffc03a21        0x3 C:\PROGRA~2\GCCFOR~2.201\rx-elf\rx-elf/rx-elf/lib\libstdc++.a(ios_failure.o)
                0xffc03a21                std::ios_base::failure::what() const
 *fill*         0xffc03a24        0x4 
 .text._ZNSt8ios_base7failureD2Ev
                0xffc03a28       0x38 C:\PROGRA~2\GCCFOR~2.201\rx-elf\rx-elf/rx-elf/lib\libstdc++.a(ios_failure.o)
                0xffc03a28                std::ios_base::failure::~failure()
                0xffc03a28                std::ios_base::failure::~failure()
 .text._ZNSt8ios_base7failureD0Ev
                0xffc03a60       0x10 C:\PROGRA~2\GCCFOR~2.201\rx-elf\rx-elf/rx-elf/lib\libstdc++.a(ios_failure.o)
                0xffc03a60                std::ios_base::failure::~failure()
 .text._ZNSt8ios_base7failureC2ERKSs
                0xffc03a70       0x6e C:\PROGRA~2\GCCFOR~2.201\rx-elf\rx-elf/rx-elf/lib\libstdc++.a(ios_failure.o)
                0xffc03a70                std::ios_base::failure::failure(std::string const&)
                0xffc03a70                std::ios_base::failure::failure(std::string const&)
 .text._ZNK12_GLOBAL__N_122generic_error_category4nameEv
                0xffc03ade        0x7 C:\PROGRA~2\GCCFOR~2.201\rx-elf\rx-elf/rx-elf/lib\libstdc++.a(system_error.o)
 .text._ZNK12_GLOBAL__N_121system_error_category4nameEv
                0xffc03ae5        0x7 C:\PROGRA~2\GCCFOR~2.201\rx-elf\rx-elf/rx-elf/lib\libstdc++.a(system_error.o)
 .text._ZNSt14error_categoryD2Ev
                0xffc03aec        0x7 C:\PROGRA~2\GCCFOR~2.201\rx-elf\rx-elf/rx-elf/lib\libstdc++.a(system_error.o)
                0xffc03aec                std::error_category::~error_category()
                0xffc03aec                std::error_category::~error_category()
 .text._ZNKSt14error_category23default_error_conditionEi
                0xffc03af3        0x4 C:\PROGRA~2\GCCFOR~2.201\rx-elf\rx-elf/rx-elf/lib\libstdc++.a(system_error.o)
                0xffc03af3                std::error_category::default_error_condition(int) const
 .text._ZNKSt14error_category10equivalentEiRKSt15error_condition
                0xffc03af7       0x24 C:\PROGRA~2\GCCFOR~2.201\rx-elf\rx-elf/rx-elf/lib\libstdc++.a(system_error.o)
                0xffc03af7                std::error_category::equivalent(int, std::error_condition const&) const
 .text._ZNKSt14error_category10equivalentERKSt10error_codei
                0xffc03b1b       0x15 C:\PROGRA~2\GCCFOR~2.201\rx-elf\rx-elf/rx-elf/lib\libstdc++.a(system_error.o)
                0xffc03b1b                std::error_category::equivalent(std::error_code const&, int) const
 .text._ZN12_GLOBAL__N_121system_error_categoryD2Ev
                0xffc03b30        0x7 C:\PROGRA~2\GCCFOR~2.201\rx-elf\rx-elf/rx-elf/lib\libstdc++.a(system_error.o)
 .text._ZN12_GLOBAL__N_122generic_error_categoryD2Ev
                0xffc03b37        0x7 C:\PROGRA~2\GCCFOR~2.201\rx-elf\rx-elf/rx-elf/lib\libstdc++.a(system_error.o)
 .text._ZNSt14error_categoryD0Ev
                0xffc03b3e        0xa C:\PROGRA~2\GCCFOR~2.201\rx-elf\rx-elf/rx-elf/lib\libstdc++.a(system_error.o)
                0xffc03b3e                std::error_category::~error_category()
 .text._ZN12_GLOBAL__N_121system_error_categoryD0Ev
                0xffc03b48        0xa C:\PROGRA~2\GCCFOR~2.201\rx-elf\rx-elf/rx-elf/lib\libstdc++.a(system_error.o)
 .text._ZN12_GLOBAL__N_122generic_error_categoryD0Ev
                0xffc03b52        0xa C:\PROGRA~2\GCCFOR~2.201\rx-elf\rx-elf/rx-elf/lib\libstdc++.a(system_error.o)
 .text._ZNSt12system_errorD2Ev
                0xffc03b5c        0xa C:\PROGRA~2\GCCFOR~2.201\rx-elf\rx-elf/rx-elf/lib\libstdc++.a(system_error.o)
                0xffc03b5c                std::system_error::~system_error()
                0xffc03b5c                std::system_error::~system_error()
 .text._ZNSt12system_errorD0Ev
                0xffc03b66       0x16 C:\PROGRA~2\GCCFOR~2.201\rx-elf\rx-elf/rx-elf/lib\libstdc++.a(system_error.o)
                0xffc03b66                std::system_error::~system_error()
 .text._ZNK12_GLOBAL__N_121system_error_category7messageEi
                0xffc03b7c       0x1b C:\PROGRA~2\GCCFOR~2.201\rx-elf\rx-elf/rx-elf/lib\libstdc++.a(system_error.o)
 .text._ZNK12_GLOBAL__N_122generic_error_category7messageEi
                0xffc03b97       0x1b C:\PROGRA~2\GCCFOR~2.201\rx-elf\rx-elf/rx-elf/lib\libstdc++.a(system_error.o)
 .text._ZNSt14error_categoryC2Ev
                0xffc03bb2        0x7 C:\PROGRA~2\GCCFOR~2.201\rx-elf\rx-elf/rx-elf/lib\libstdc++.a(system_error.o)
                0xffc03bb2                std::error_category::error_category()
                0xffc03bb2                std::error_category::error_category()
 .text._ZSt15system_categoryv
                0xffc03bb9        0x7 C:\PROGRA~2\GCCFOR~2.201\rx-elf\rx-elf/rx-elf/lib\libstdc++.a(system_error.o)
                0xffc03bb9                std::system_category()
 .text._ZSt16generic_categoryv
                0xffc03bc0        0x7 C:\PROGRA~2\GCCFOR~2.201\rx-elf\rx-elf/rx-elf/lib\libstdc++.a(system_error.o)
                0xffc03bc0                std::generic_category()
 .text._ZNKSt10error_code23default_error_conditionEv
                0xffc03bc7        0xf C:\PROGRA~2\GCCFOR~2.201\rx-elf\rx-elf/rx-elf/lib\libstdc++.a(system_error.o)
                0xffc03bc7                std::error_code::default_error_condition() const
 .text.startup._GLOBAL__sub_I__ZNSt14error_categoryC2Ev
                0xffc03bd6       0x3c C:\PROGRA~2\GCCFOR~2.201\rx-elf\rx-elf/rx-elf/lib\libstdc++.a(system_error.o)
 .text._ZNK12_GLOBAL__N_121future_error_category4nameEv
                0xffc03c12        0x7 C:\PROGRA~2\GCCFOR~2.201\rx-elf\rx-elf/rx-elf/lib\libstdc++.a(future.o)
 .text._ZN12_GLOBAL__N_121future_error_categoryD2Ev
                0xffc03c19        0xa C:\PROGRA~2\GCCFOR~2.201\rx-elf\rx-elf/rx-elf/lib\libstdc++.a(future.o)
 .text._ZN12_GLOBAL__N_121future_error_categoryD0Ev
                0xffc03c23       0x16 C:\PROGRA~2\GCCFOR~2.201\rx-elf\rx-elf/rx-elf/lib\libstdc++.a(future.o)
 .text._ZNSt12future_errorD2Ev
                0xffc03c39        0xa C:\PROGRA~2\GCCFOR~2.201\rx-elf\rx-elf/rx-elf/lib\libstdc++.a(future.o)
                0xffc03c39                std::future_error::~future_error()
                0xffc03c39                std::future_error::~future_error()
 .text._ZNSt12future_errorD0Ev
                0xffc03c43       0x16 C:\PROGRA~2\GCCFOR~2.201\rx-elf\rx-elf/rx-elf/lib\libstdc++.a(future.o)
                0xffc03c43                std::future_error::~future_error()
 *fill*         0xffc03c59        0x7 
 .text._ZNKSt12future_error4whatEv
                0xffc03c60       0x60 C:\PROGRA~2\GCCFOR~2.201\rx-elf\rx-elf/rx-elf/lib\libstdc++.a(future.o)
                0xffc03c60                std::future_error::what() const
 .text._ZNK12_GLOBAL__N_121future_error_category7messageEi
                0xffc03cc0       0xf8 C:\PROGRA~2\GCCFOR~2.201\rx-elf\rx-elf/rx-elf/lib\libstdc++.a(future.o)
 .text._ZSt15future_categoryv
                0xffc03db8       0x58 C:\PROGRA~2\GCCFOR~2.201\rx-elf\rx-elf/rx-elf/lib\libstdc++.a(future.o)
                0xffc03db8                std::future_category()
 .text._ZNKSs4dataEv
                0xffc03e10        0x3 C:\PROGRA~2\GCCFOR~2.201\rx-elf\rx-elf/rx-elf/lib\libstdc++.a(string-inst.o)
                0xffc03e10                std::string::data() const
 .text._ZNKSs6lengthEv
                0xffc03e13        0x7 C:\PROGRA~2\GCCFOR~2.201\rx-elf\rx-elf/rx-elf/lib\libstdc++.a(string-inst.o)
                0xffc03e13                std::string::length() const
 .text._ZNKSs7_M_dataEv
                0xffc03e1a        0x3 C:\PROGRA~2\GCCFOR~2.201\rx-elf\rx-elf/rx-elf/lib\libstdc++.a(string-inst.o)
                0xffc03e1a                std::string::_M_data() const
 .text._ZNSs7_M_dataEPc
                0xffc03e1d        0x5 C:\PROGRA~2\GCCFOR~2.201\rx-elf\rx-elf/rx-elf/lib\libstdc++.a(string-inst.o)
                0xffc03e1d                std::string::_M_data(char*)
 .text._ZNKSs6_M_repEv
                0xffc03e22        0x5 C:\PROGRA~2\GCCFOR~2.201\rx-elf\rx-elf/rx-elf/lib\libstdc++.a(string-inst.o)
                0xffc03e22                std::string::_M_rep() const
 .text._ZNKSs9_M_ibeginEv
                0xffc03e27        0x3 C:\PROGRA~2\GCCFOR~2.201\rx-elf\rx-elf/rx-elf/lib\libstdc++.a(string-inst.o)
                0xffc03e27                std::string::_M_ibegin() const
 .text._ZNKSs7_M_iendEv
                0xffc03e2a        0x9 C:\PROGRA~2\GCCFOR~2.201\rx-elf\rx-elf/rx-elf/lib\libstdc++.a(string-inst.o)
                0xffc03e2a                std::string::_M_iend() const
 .text._ZNKSs8_M_checkEmPKc
                0xffc03e33       0x12 C:\PROGRA~2\GCCFOR~2.201\rx-elf\rx-elf/rx-elf/lib\libstdc++.a(string-inst.o)
                0xffc03e33                std::string::_M_check(unsigned long, char const*) const
 .text._ZNKSs15_M_check_lengthEmmPKc
                0xffc03e45       0x19 C:\PROGRA~2\GCCFOR~2.201\rx-elf\rx-elf/rx-elf/lib\libstdc++.a(string-inst.o)
                0xffc03e45                std::string::_M_check_length(unsigned long, unsigned long, char const*) const
 .text._ZNKSs8_M_limitEmm
                0xffc03e5e        0xf C:\PROGRA~2\GCCFOR~2.201\rx-elf\rx-elf/rx-elf/lib\libstdc++.a(string-inst.o)
                0xffc03e5e                std::string::_M_limit(unsigned long, unsigned long) const
 .text._ZNKSs11_M_disjunctEPKc
                0xffc03e6d       0x1b C:\PROGRA~2\GCCFOR~2.201\rx-elf\rx-elf/rx-elf/lib\libstdc++.a(string-inst.o)
                0xffc03e6d                std::string::_M_disjunct(char const*) const
 .text._ZNSs7_M_copyEPcPKcm
                0xffc03e88        0x9 C:\PROGRA~2\GCCFOR~2.201\rx-elf\rx-elf/rx-elf/lib\libstdc++.a(string-inst.o)
                0xffc03e88                std::string::_M_copy(char*, char const*, unsigned long)
 .text._ZNSs7_M_moveEPcPKcm
                0xffc03e91        0xa C:\PROGRA~2\GCCFOR~2.201\rx-elf\rx-elf/rx-elf/lib\libstdc++.a(string-inst.o)
                0xffc03e91                std::string::_M_move(char*, char const*, unsigned long)
 .text._ZNSs9_M_assignEPcmc
                0xffc03e9b       0x11 C:\PROGRA~2\GCCFOR~2.201\rx-elf\rx-elf/rx-elf/lib\libstdc++.a(string-inst.o)
                0xffc03e9b                std::string::_M_assign(char*, unsigned long, char)
 .text._ZNSs13_S_copy_charsEPcN9__gnu_cxx17__normal_iteratorIS_SsEES2_
                0xffc03eac        0xb C:\PROGRA~2\GCCFOR~2.201\rx-elf\rx-elf/rx-elf/lib\libstdc++.a(string-inst.o)
                0xffc03eac                std::string::_S_copy_chars(char*, __gnu_cxx::__normal_iterator<char*, std::string>, __gnu_cxx::__normal_iterator<char*, std::string>)
 .text._ZNSs13_S_copy_charsEPcN9__gnu_cxx17__normal_iteratorIPKcSsEES4_
                0xffc03eb7        0xb C:\PROGRA~2\GCCFOR~2.201\rx-elf\rx-elf/rx-elf/lib\libstdc++.a(string-inst.o)
                0xffc03eb7                std::string::_S_copy_chars(char*, __gnu_cxx::__normal_iterator<char const*, std::string>, __gnu_cxx::__normal_iterator<char const*, std::string>)
 .text._ZNSs13_S_copy_charsEPcS_S_
                0xffc03ec2        0xb C:\PROGRA~2\GCCFOR~2.201\rx-elf\rx-elf/rx-elf/lib\libstdc++.a(string-inst.o)
                0xffc03ec2                std::string::_S_copy_chars(char*, char*, char*)
 .text._ZNSs13_S_copy_charsEPcPKcS1_
                0xffc03ecd        0xb C:\PROGRA~2\GCCFOR~2.201\rx-elf\rx-elf/rx-elf/lib\libstdc++.a(string-inst.o)
                0xffc03ecd                std::string::_S_copy_chars(char*, char const*, char const*)
 .text._ZNSs10_S_compareEmm
                0xffc03ed8        0x3 C:\PROGRA~2\GCCFOR~2.201\rx-elf\rx-elf/rx-elf/lib\libstdc++.a(string-inst.o)
                0xffc03ed8                std::string::_S_compare(unsigned long, unsigned long)
 .text._ZNSs12_S_empty_repEv
                0xffc03edb        0x7 C:\PROGRA~2\GCCFOR~2.201\rx-elf\rx-elf/rx-elf/lib\libstdc++.a(string-inst.o)
                0xffc03edb                std::string::_S_empty_rep()
 .text._ZNSsC2Ev
                0xffc03ee2        0x7 C:\PROGRA~2\GCCFOR~2.201\rx-elf\rx-elf/rx-elf/lib\libstdc++.a(string-inst.o)
                0xffc03ee2                std::basic_string<char, std::char_traits<char>, std::allocator<char> >::basic_string()
                0xffc03ee2                std::basic_string<char, std::char_traits<char>, std::allocator<char> >::basic_string()
 .text._ZNSsC2EOSs
                0xffc03ee9        0x9 C:\PROGRA~2\GCCFOR~2.201\rx-elf\rx-elf/rx-elf/lib\libstdc++.a(string-inst.o)
                0xffc03ee9                std::basic_string<char, std::char_traits<char>, std::allocator<char> >::basic_string(std::string&&)
                0xffc03ee9                std::basic_string<char, std::char_traits<char>, std::allocator<char> >::basic_string(std::string&&)
 .text._ZNKSs5beginEv
                0xffc03ef2        0x3 C:\PROGRA~2\GCCFOR~2.201\rx-elf\rx-elf/rx-elf/lib\libstdc++.a(string-inst.o)
                0xffc03ef2                std::string::begin() const
 .text._ZNKSs3endEv
                0xffc03ef5        0x9 C:\PROGRA~2\GCCFOR~2.201\rx-elf\rx-elf/rx-elf/lib\libstdc++.a(string-inst.o)
                0xffc03ef5                std::string::end() const
 .text._ZNKSs6rbeginEv
                0xffc03efe        0xd C:\PROGRA~2\GCCFOR~2.201\rx-elf\rx-elf/rx-elf/lib\libstdc++.a(string-inst.o)
                0xffc03efe                std::string::rbegin() const
 .text._ZNKSs4rendEv
                0xffc03f0b        0x5 C:\PROGRA~2\GCCFOR~2.201\rx-elf\rx-elf/rx-elf/lib\libstdc++.a(string-inst.o)
                0xffc03f0b                std::string::rend() const
 .text._ZNKSs6cbeginEv
                0xffc03f10        0x3 C:\PROGRA~2\GCCFOR~2.201\rx-elf\rx-elf/rx-elf/lib\libstdc++.a(string-inst.o)
                0xffc03f10                std::string::cbegin() const
 .text._ZNKSs4cendEv
                0xffc03f13        0x9 C:\PROGRA~2\GCCFOR~2.201\rx-elf\rx-elf/rx-elf/lib\libstdc++.a(string-inst.o)
                0xffc03f13                std::string::cend() const
 .text._ZNKSs7crbeginEv
                0xffc03f1c        0xd C:\PROGRA~2\GCCFOR~2.201\rx-elf\rx-elf/rx-elf/lib\libstdc++.a(string-inst.o)
                0xffc03f1c                std::string::crbegin() const
 .text._ZNKSs5crendEv
                0xffc03f29        0x5 C:\PROGRA~2\GCCFOR~2.201\rx-elf\rx-elf/rx-elf/lib\libstdc++.a(string-inst.o)
                0xffc03f29                std::string::crend() const
 .text._ZNKSs4sizeEv
                0xffc03f2e        0x7 C:\PROGRA~2\GCCFOR~2.201\rx-elf\rx-elf/rx-elf/lib\libstdc++.a(string-inst.o)
                0xffc03f2e                std::string::size() const
 .text._ZNKSs8max_sizeEv
                0xffc03f35        0x7 C:\PROGRA~2\GCCFOR~2.201\rx-elf\rx-elf/rx-elf/lib\libstdc++.a(string-inst.o)
                0xffc03f35                std::string::max_size() const
 .text._ZNKSs8capacityEv
                0xffc03f3c        0x8 C:\PROGRA~2\GCCFOR~2.201\rx-elf\rx-elf/rx-elf/lib\libstdc++.a(string-inst.o)
                0xffc03f3c                std::string::capacity() const
 .text._ZNKSs5emptyEv
                0xffc03f44        0xc C:\PROGRA~2\GCCFOR~2.201\rx-elf\rx-elf/rx-elf/lib\libstdc++.a(string-inst.o)
                0xffc03f44                std::string::empty() const
 .text._ZNKSsixEm
                0xffc03f50        0x5 C:\PROGRA~2\GCCFOR~2.201\rx-elf\rx-elf/rx-elf/lib\libstdc++.a(string-inst.o)
                0xffc03f50                std::string::operator[](unsigned long) const
 .text._ZNKSs2atEm
                0xffc03f55       0x17 C:\PROGRA~2\GCCFOR~2.201\rx-elf\rx-elf/rx-elf/lib\libstdc++.a(string-inst.o)
                0xffc03f55                std::string::at(unsigned long) const
 .text._ZNKSs5frontEv
                0xffc03f6c        0x3 C:\PROGRA~2\GCCFOR~2.201\rx-elf\rx-elf/rx-elf/lib\libstdc++.a(string-inst.o)
                0xffc03f6c                std::string::front() const
 .text._ZNKSs4backEv
                0xffc03f6f        0xc C:\PROGRA~2\GCCFOR~2.201\rx-elf\rx-elf/rx-elf/lib\libstdc++.a(string-inst.o)
                0xffc03f6f                std::string::back() const
 *fill*         0xffc03f7b        0x5 
 .text._ZNKSs4copyEPcmm
                0xffc03f80       0x38 C:\PROGRA~2\GCCFOR~2.201\rx-elf\rx-elf/rx-elf/lib\libstdc++.a(string-inst.o)
                0xffc03f80                std::string::copy(char*, unsigned long, unsigned long) const
 .text._ZNSs4swapERSs
                0xffc03fb8       0x28 C:\PROGRA~2\GCCFOR~2.201\rx-elf\rx-elf/rx-elf/lib\libstdc++.a(string-inst.o)
                0xffc03fb8                std::string::swap(std::string&)
 .text._ZNSsaSEOSs
                0xffc03fe0        0xd C:\PROGRA~2\GCCFOR~2.201\rx-elf\rx-elf/rx-elf/lib\libstdc++.a(string-inst.o)
                0xffc03fe0                std::string::operator=(std::string&&)
 .text._ZNSs6assignEOSs
                0xffc03fed        0xd C:\PROGRA~2\GCCFOR~2.201\rx-elf\rx-elf/rx-elf/lib\libstdc++.a(string-inst.o)
                0xffc03fed                std::string::assign(std::string&&)
 .text._ZNKSs5c_strEv
                0xffc03ffa        0x3 C:\PROGRA~2\GCCFOR~2.201\rx-elf\rx-elf/rx-elf/lib\libstdc++.a(string-inst.o)
                0xffc03ffa                std::string::c_str() const
 .text._ZNKSs13get_allocatorEv
                0xffc03ffd        0x3 C:\PROGRA~2\GCCFOR~2.201\rx-elf\rx-elf/rx-elf/lib\libstdc++.a(string-inst.o)
                0xffc03ffd                std::string::get_allocator() const
 .text._ZNKSs4findEPKcmm
                0xffc04000       0x68 C:\PROGRA~2\GCCFOR~2.201\rx-elf\rx-elf/rx-elf/lib\libstdc++.a(string-inst.o)
                0xffc04000                std::string::find(char const*, unsigned long, unsigned long) const
 .text._ZNKSs4findERKSsm
                0xffc04068       0x3e C:\PROGRA~2\GCCFOR~2.201\rx-elf\rx-elf/rx-elf/lib\libstdc++.a(string-inst.o)
                0xffc04068                std::string::find(std::string const&, unsigned long) const
 .text._ZNKSs4findEPKcm
                0xffc040a6       0x20 C:\PROGRA~2\GCCFOR~2.201\rx-elf\rx-elf/rx-elf/lib\libstdc++.a(string-inst.o)
                0xffc040a6                std::string::find(char const*, unsigned long) const
 *fill*         0xffc040c6        0x2 
 .text._ZNKSs4findEcm
                0xffc040c8       0x28 C:\PROGRA~2\GCCFOR~2.201\rx-elf\rx-elf/rx-elf/lib\libstdc++.a(string-inst.o)
                0xffc040c8                std::string::find(char, unsigned long) const
 .text._ZNKSs5rfindEPKcmm
                0xffc040f0       0x48 C:\PROGRA~2\GCCFOR~2.201\rx-elf\rx-elf/rx-elf/lib\libstdc++.a(string-inst.o)
                0xffc040f0                std::string::rfind(char const*, unsigned long, unsigned long) const
 .text._ZNKSs5rfindERKSsm
                0xffc04138       0x3e C:\PROGRA~2\GCCFOR~2.201\rx-elf\rx-elf/rx-elf/lib\libstdc++.a(string-inst.o)
                0xffc04138                std::string::rfind(std::string const&, unsigned long) const
 .text._ZNKSs5rfindEPKcm
                0xffc04176       0x20 C:\PROGRA~2\GCCFOR~2.201\rx-elf\rx-elf/rx-elf/lib\libstdc++.a(string-inst.o)
                0xffc04176                std::string::rfind(char const*, unsigned long) const
 *fill*         0xffc04196        0x2 
 .text._ZNKSs5rfindEcm
                0xffc04198       0x38 C:\PROGRA~2\GCCFOR~2.201\rx-elf\rx-elf/rx-elf/lib\libstdc++.a(string-inst.o)
                0xffc04198                std::string::rfind(char, unsigned long) const
 .text._ZNKSs13find_first_ofEPKcmm
                0xffc041d0       0x40 C:\PROGRA~2\GCCFOR~2.201\rx-elf\rx-elf/rx-elf/lib\libstdc++.a(string-inst.o)
                0xffc041d0                std::string::find_first_of(char const*, unsigned long, unsigned long) const
 .text._ZNKSs13find_first_ofERKSsm
                0xffc04210       0x3e C:\PROGRA~2\GCCFOR~2.201\rx-elf\rx-elf/rx-elf/lib\libstdc++.a(string-inst.o)
                0xffc04210                std::string::find_first_of(std::string const&, unsigned long) const
 .text._ZNKSs13find_first_ofEPKcm
                0xffc0424e       0x20 C:\PROGRA~2\GCCFOR~2.201\rx-elf\rx-elf/rx-elf/lib\libstdc++.a(string-inst.o)
                0xffc0424e                std::string::find_first_of(char const*, unsigned long) const
 .text._ZNKSs13find_first_ofEcm
                0xffc0426e        0x4 C:\PROGRA~2\GCCFOR~2.201\rx-elf\rx-elf/rx-elf/lib\libstdc++.a(string-inst.o)
                0xffc0426e                std::string::find_first_of(char, unsigned long) const
 *fill*         0xffc04272        0x6 
 .text._ZNKSs12find_last_ofEPKcmm
                0xffc04278       0x50 C:\PROGRA~2\GCCFOR~2.201\rx-elf\rx-elf/rx-elf/lib\libstdc++.a(string-inst.o)
                0xffc04278                std::string::find_last_of(char const*, unsigned long, unsigned long) const
 .text._ZNKSs12find_last_ofERKSsm
                0xffc042c8       0x3e C:\PROGRA~2\GCCFOR~2.201\rx-elf\rx-elf/rx-elf/lib\libstdc++.a(string-inst.o)
                0xffc042c8                std::string::find_last_of(std::string const&, unsigned long) const
 .text._ZNKSs12find_last_ofEPKcm
                0xffc04306       0x20 C:\PROGRA~2\GCCFOR~2.201\rx-elf\rx-elf/rx-elf/lib\libstdc++.a(string-inst.o)
                0xffc04306                std::string::find_last_of(char const*, unsigned long) const
 .text._ZNKSs12find_last_ofEcm
                0xffc04326        0x4 C:\PROGRA~2\GCCFOR~2.201\rx-elf\rx-elf/rx-elf/lib\libstdc++.a(string-inst.o)
                0xffc04326                std::string::find_last_of(char, unsigned long) const
 *fill*         0xffc0432a        0x6 
 .text._ZNKSs17find_first_not_ofEPKcmm
                0xffc04330       0x40 C:\PROGRA~2\GCCFOR~2.201\rx-elf\rx-elf/rx-elf/lib\libstdc++.a(string-inst.o)
                0xffc04330                std::string::find_first_not_of(char const*, unsigned long, unsigned long) const
 .text._ZNKSs17find_first_not_ofERKSsm
                0xffc04370       0x3e C:\PROGRA~2\GCCFOR~2.201\rx-elf\rx-elf/rx-elf/lib\libstdc++.a(string-inst.o)
                0xffc04370                std::string::find_first_not_of(std::string const&, unsigned long) const
 .text._ZNKSs17find_first_not_ofEPKcm
                0xffc043ae       0x20 C:\PROGRA~2\GCCFOR~2.201\rx-elf\rx-elf/rx-elf/lib\libstdc++.a(string-inst.o)
                0xffc043ae                std::string::find_first_not_of(char const*, unsigned long) const
 *fill*         0xffc043ce        0x2 
 .text._ZNKSs17find_first_not_ofEcm
                0xffc043d0       0x30 C:\PROGRA~2\GCCFOR~2.201\rx-elf\rx-elf/rx-elf/lib\libstdc++.a(string-inst.o)
                0xffc043d0                std::string::find_first_not_of(char, unsigned long) const
 .text._ZNKSs16find_last_not_ofEPKcmm
                0xffc04400       0x48 C:\PROGRA~2\GCCFOR~2.201\rx-elf\rx-elf/rx-elf/lib\libstdc++.a(string-inst.o)
                0xffc04400                std::string::find_last_not_of(char const*, unsigned long, unsigned long) const
 .text._ZNKSs16find_last_not_ofERKSsm
                0xffc04448       0x3e C:\PROGRA~2\GCCFOR~2.201\rx-elf\rx-elf/rx-elf/lib\libstdc++.a(string-inst.o)
                0xffc04448                std::string::find_last_not_of(std::string const&, unsigned long) const
 .text._ZNKSs16find_last_not_ofEPKcm
                0xffc04486       0x20 C:\PROGRA~2\GCCFOR~2.201\rx-elf\rx-elf/rx-elf/lib\libstdc++.a(string-inst.o)
                0xffc04486                std::string::find_last_not_of(char const*, unsigned long) const
 *fill*         0xffc044a6        0x2 
 .text._ZNKSs16find_last_not_ofEcm
                0xffc044a8       0x30 C:\PROGRA~2\GCCFOR~2.201\rx-elf\rx-elf/rx-elf/lib\libstdc++.a(string-inst.o)
                0xffc044a8                std::string::find_last_not_of(char, unsigned long) const
 .text._ZNKSs7compareERKSs
                0xffc044d8       0x27 C:\PROGRA~2\GCCFOR~2.201\rx-elf\rx-elf/rx-elf/lib\libstdc++.a(string-inst.o)
                0xffc044d8                std::string::compare(std::string const&) const
 .text._ZNKSs7compareEmmRKSs
                0xffc044ff       0x42 C:\PROGRA~2\GCCFOR~2.201\rx-elf\rx-elf/rx-elf/lib\libstdc++.a(string-inst.o)
                0xffc044ff                std::string::compare(unsigned long, unsigned long, std::string const&) const
 .text._ZNKSs7compareEmmRKSsmm
                0xffc04541       0x5b C:\PROGRA~2\GCCFOR~2.201\rx-elf\rx-elf/rx-elf/lib\libstdc++.a(string-inst.o)
                0xffc04541                std::string::compare(unsigned long, unsigned long, std::string const&, unsigned long, unsigned long) const
 .text._ZNKSs7compareEPKc
                0xffc0459c       0x30 C:\PROGRA~2\GCCFOR~2.201\rx-elf\rx-elf/rx-elf/lib\libstdc++.a(string-inst.o)
                0xffc0459c                std::string::compare(char const*) const
 .text._ZNKSs7compareEmmPKc
                0xffc045cc       0x48 C:\PROGRA~2\GCCFOR~2.201\rx-elf\rx-elf/rx-elf/lib\libstdc++.a(string-inst.o)
                0xffc045cc                std::string::compare(unsigned long, unsigned long, char const*) const
 .text._ZNKSs7compareEmmPKcm
                0xffc04614       0x3f C:\PROGRA~2\GCCFOR~2.201\rx-elf\rx-elf/rx-elf/lib\libstdc++.a(string-inst.o)
                0xffc04614                std::string::compare(unsigned long, unsigned long, char const*, unsigned long) const
 .text._ZNSs12_Alloc_hiderC2EPcRKSaIcE
                0xffc04653        0x3 C:\PROGRA~2\GCCFOR~2.201\rx-elf\rx-elf/rx-elf/lib\libstdc++.a(string-inst.o)
                0xffc04653                std::string::_Alloc_hider::_Alloc_hider(char*, std::allocator<char> const&)
                0xffc04653                std::string::_Alloc_hider::_Alloc_hider(char*, std::allocator<char> const&)
 .text._ZNSs4_Rep12_S_empty_repEv
                0xffc04656        0x7 C:\PROGRA~2\GCCFOR~2.201\rx-elf\rx-elf/rx-elf/lib\libstdc++.a(string-inst.o)
                0xffc04656                std::string::_Rep::_S_empty_rep()
 .text._ZNKSs4_Rep12_M_is_leakedEv
                0xffc0465d        0x5 C:\PROGRA~2\GCCFOR~2.201\rx-elf\rx-elf/rx-elf/lib\libstdc++.a(string-inst.o)
                0xffc0465d                std::string::_Rep::_M_is_leaked() const
 .text._ZNKSs4_Rep12_M_is_sharedEv
                0xffc04662        0x8 C:\PROGRA~2\GCCFOR~2.201\rx-elf\rx-elf/rx-elf/lib\libstdc++.a(string-inst.o)
                0xffc04662                std::string::_Rep::_M_is_shared() const
 .text._ZNSs4_Rep13_M_set_leakedEv
                0xffc0466a        0x5 C:\PROGRA~2\GCCFOR~2.201\rx-elf\rx-elf/rx-elf/lib\libstdc++.a(string-inst.o)
                0xffc0466a                std::string::_Rep::_M_set_leaked()
 .text._ZNSs4_Rep15_M_set_sharableEv
                0xffc0466f        0x4 C:\PROGRA~2\GCCFOR~2.201\rx-elf\rx-elf/rx-elf/lib\libstdc++.a(string-inst.o)
                0xffc0466f                std::string::_Rep::_M_set_sharable()
 .text._ZNSs4_Rep26_M_set_length_and_sharableEm
                0xffc04673       0x14 C:\PROGRA~2\GCCFOR~2.201\rx-elf\rx-elf/rx-elf/lib\libstdc++.a(string-inst.o)
                0xffc04673                std::string::_Rep::_M_set_length_and_sharable(unsigned long)
 .text._ZNSs4_Rep10_M_refdataEv
                0xffc04687        0x3 C:\PROGRA~2\GCCFOR~2.201\rx-elf\rx-elf/rx-elf/lib\libstdc++.a(string-inst.o)
                0xffc04687                std::string::_Rep::_M_refdata()
 *fill*         0xffc0468a        0x6 
 .text._ZNSs4_Rep9_S_createEmmRKSaIcE
                0xffc04690       0x60 C:\PROGRA~2\GCCFOR~2.201\rx-elf\rx-elf/rx-elf/lib\libstdc++.a(string-inst.o)
                0xffc04690                std::string::_Rep::_S_create(unsigned long, unsigned long, std::allocator<char> const&)
 .text._ZNSs12_S_constructEmcRKSaIcE
                0xffc046f0       0x50 C:\PROGRA~2\GCCFOR~2.201\rx-elf\rx-elf/rx-elf/lib\libstdc++.a(string-inst.o)
                0xffc046f0                std::string::_S_construct(unsigned long, char, std::allocator<char> const&)
 .text._ZNSsC2ERKSaIcE
                0xffc04740       0x13 C:\PROGRA~2\GCCFOR~2.201\rx-elf\rx-elf/rx-elf/lib\libstdc++.a(string-inst.o)
                0xffc04740                std::basic_string<char, std::char_traits<char>, std::allocator<char> >::basic_string(std::allocator<char> const&)
                0xffc04740                std::basic_string<char, std::char_traits<char>, std::allocator<char> >::basic_string(std::allocator<char> const&)
 .text._ZNSsC2EmcRKSaIcE
                0xffc04753       0x13 C:\PROGRA~2\GCCFOR~2.201\rx-elf\rx-elf/rx-elf/lib\libstdc++.a(string-inst.o)
                0xffc04753                std::basic_string<char, std::char_traits<char>, std::allocator<char> >::basic_string(unsigned long, char, std::allocator<char> const&)
                0xffc04753                std::basic_string<char, std::char_traits<char>, std::allocator<char> >::basic_string(unsigned long, char, std::allocator<char> const&)
 .text._ZNSs18_S_construct_aux_2EmcRKSaIcE
                0xffc04766        0x4 C:\PROGRA~2\GCCFOR~2.201\rx-elf\rx-elf/rx-elf/lib\libstdc++.a(string-inst.o)
                0xffc04766                std::string::_S_construct_aux_2(unsigned long, char, std::allocator<char> const&)
 .text._ZNSs4_Rep10_M_destroyERKSaIcE
                0xffc0476a        0x4 C:\PROGRA~2\GCCFOR~2.201\rx-elf\rx-elf/rx-elf/lib\libstdc++.a(string-inst.o)
                0xffc0476a                std::string::_Rep::_M_destroy(std::allocator<char> const&)
 .text.unlikely._ZNSs4_Rep10_M_disposeERKSaIcE.part.12
                0xffc0476e       0x11 C:\PROGRA~2\GCCFOR~2.201\rx-elf\rx-elf/rx-elf/lib\libstdc++.a(string-inst.o)
 .text._ZNSs4_Rep10_M_disposeERKSaIcE
                0xffc0477f        0xd C:\PROGRA~2\GCCFOR~2.201\rx-elf\rx-elf/rx-elf/lib\libstdc++.a(string-inst.o)
                0xffc0477f                std::string::_Rep::_M_dispose(std::allocator<char> const&)
 .text._ZNSsD2Ev
                0xffc0478c       0x17 C:\PROGRA~2\GCCFOR~2.201\rx-elf\rx-elf/rx-elf/lib\libstdc++.a(string-inst.o)
                0xffc0478c                std::basic_string<char, std::char_traits<char>, std::allocator<char> >::~basic_string()
                0xffc0478c                std::basic_string<char, std::char_traits<char>, std::allocator<char> >::~basic_string()
 *fill*         0xffc047a3        0x5 
 .text._ZNSs9_M_mutateEmmm
                0xffc047a8       0xc8 C:\PROGRA~2\GCCFOR~2.201\rx-elf\rx-elf/rx-elf/lib\libstdc++.a(string-inst.o)
                0xffc047a8                std::string::_M_mutate(unsigned long, unsigned long, unsigned long)
 .text._ZNSs12_M_leak_hardEv
                0xffc04870       0x30 C:\PROGRA~2\GCCFOR~2.201\rx-elf\rx-elf/rx-elf/lib\libstdc++.a(string-inst.o)
                0xffc04870                std::string::_M_leak_hard()
 .text._ZNSs7_M_leakEv
                0xffc048a0       0x10 C:\PROGRA~2\GCCFOR~2.201\rx-elf\rx-elf/rx-elf/lib\libstdc++.a(string-inst.o)
                0xffc048a0                std::string::_M_leak()
 .text._ZNSs5beginEv
                0xffc048b0       0x40 C:\PROGRA~2\GCCFOR~2.201\rx-elf\rx-elf/rx-elf/lib\libstdc++.a(string-inst.o)
                0xffc048b0                std::string::begin()
 .text._ZNSs4rendEv
                0xffc048f0       0x40 C:\PROGRA~2\GCCFOR~2.201\rx-elf\rx-elf/rx-elf/lib\libstdc++.a(string-inst.o)
                0xffc048f0                std::string::rend()
 .text._ZNSs3endEv
                0xffc04930       0x48 C:\PROGRA~2\GCCFOR~2.201\rx-elf\rx-elf/rx-elf/lib\libstdc++.a(string-inst.o)
                0xffc04930                std::string::end()
 .text._ZNSsixEm
                0xffc04978       0x28 C:\PROGRA~2\GCCFOR~2.201\rx-elf\rx-elf/rx-elf/lib\libstdc++.a(string-inst.o)
                0xffc04978                std::string::operator[](unsigned long)
 .text._ZNSs5frontEv
                0xffc049a0       0x20 C:\PROGRA~2\GCCFOR~2.201\rx-elf\rx-elf/rx-elf/lib\libstdc++.a(string-inst.o)
                0xffc049a0                std::string::front()
 .text._ZNSs4backEv
                0xffc049c0       0x20 C:\PROGRA~2\GCCFOR~2.201\rx-elf\rx-elf/rx-elf/lib\libstdc++.a(string-inst.o)
                0xffc049c0                std::string::back()
 .text._ZNSs2atEm
                0xffc049e0       0x30 C:\PROGRA~2\GCCFOR~2.201\rx-elf\rx-elf/rx-elf/lib\libstdc++.a(string-inst.o)
                0xffc049e0                std::string::at(unsigned long)
 .text._ZNSs6rbeginEv
                0xffc04a10       0x48 C:\PROGRA~2\GCCFOR~2.201\rx-elf\rx-elf/rx-elf/lib\libstdc++.a(string-inst.o)
                0xffc04a10                std::string::rbegin()
 .text._ZNSs5clearEv
                0xffc04a58       0x37 C:\PROGRA~2\GCCFOR~2.201\rx-elf\rx-elf/rx-elf/lib\libstdc++.a(string-inst.o)
                0xffc04a58                std::string::clear()
 .text._ZNSs5eraseEmm
                0xffc04a8f       0x2c C:\PROGRA~2\GCCFOR~2.201\rx-elf\rx-elf/rx-elf/lib\libstdc++.a(string-inst.o)
                0xffc04a8f                std::string::erase(unsigned long, unsigned long)
 .text._ZNSs5eraseEN9__gnu_cxx17__normal_iteratorIPcSsEE
                0xffc04abb       0x21 C:\PROGRA~2\GCCFOR~2.201\rx-elf\rx-elf/rx-elf/lib\libstdc++.a(string-inst.o)
                0xffc04abb                std::string::erase(__gnu_cxx::__normal_iterator<char*, std::string>)
 .text._ZNSs5eraseEN9__gnu_cxx17__normal_iteratorIPcSsEES2_
                0xffc04adc       0x25 C:\PROGRA~2\GCCFOR~2.201\rx-elf\rx-elf/rx-elf/lib\libstdc++.a(string-inst.o)
                0xffc04adc                std::string::erase(__gnu_cxx::__normal_iterator<char*, std::string>, __gnu_cxx::__normal_iterator<char*, std::string>)
 *fill*         0xffc04b01        0x7 
 .text._ZNSs14_M_replace_auxEmmmc
                0xffc04b08       0x50 C:\PROGRA~2\GCCFOR~2.201\rx-elf\rx-elf/rx-elf/lib\libstdc++.a(string-inst.o)
                0xffc04b08                std::string::_M_replace_aux(unsigned long, unsigned long, unsigned long, char)
 .text._ZNSs6assignEmc
                0xffc04b58       0x14 C:\PROGRA~2\GCCFOR~2.201\rx-elf\rx-elf/rx-elf/lib\libstdc++.a(string-inst.o)
                0xffc04b58                std::string::assign(unsigned long, char)
 .text._ZNSsaSEc
                0xffc04b6c       0x1b C:\PROGRA~2\GCCFOR~2.201\rx-elf\rx-elf/rx-elf/lib\libstdc++.a(string-inst.o)
                0xffc04b6c                std::string::operator=(char)
 .text._ZNSs6insertEmmc
                0xffc04b87       0x23 C:\PROGRA~2\GCCFOR~2.201\rx-elf\rx-elf/rx-elf/lib\libstdc++.a(string-inst.o)
                0xffc04b87                std::string::insert(unsigned long, unsigned long, char)
 .text._ZNSs6insertEN9__gnu_cxx17__normal_iteratorIPcSsEEc
                0xffc04baa       0x25 C:\PROGRA~2\GCCFOR~2.201\rx-elf\rx-elf/rx-elf/lib\libstdc++.a(string-inst.o)
                0xffc04baa                std::string::insert(__gnu_cxx::__normal_iterator<char*, std::string>, char)
 .text._ZNSs7replaceEmmmc
                0xffc04bcf       0x31 C:\PROGRA~2\GCCFOR~2.201\rx-elf\rx-elf/rx-elf/lib\libstdc++.a(string-inst.o)
                0xffc04bcf                std::string::replace(unsigned long, unsigned long, unsigned long, char)
 .text._ZNSs7replaceEN9__gnu_cxx17__normal_iteratorIPcSsEES2_mc
                0xffc04c00       0x14 C:\PROGRA~2\GCCFOR~2.201\rx-elf\rx-elf/rx-elf/lib\libstdc++.a(string-inst.o)
                0xffc04c00                std::string::replace(__gnu_cxx::__normal_iterator<char*, std::string>, __gnu_cxx::__normal_iterator<char*, std::string>, unsigned long, char)
 .text._ZNSs6insertEN9__gnu_cxx17__normal_iteratorIPcSsEEmc
                0xffc04c14       0x14 C:\PROGRA~2\GCCFOR~2.201\rx-elf\rx-elf/rx-elf/lib\libstdc++.a(string-inst.o)
                0xffc04c14                std::string::insert(__gnu_cxx::__normal_iterator<char*, std::string>, unsigned long, char)
 .text._ZNSs15_M_replace_safeEmmPKcm
                0xffc04c28       0x30 C:\PROGRA~2\GCCFOR~2.201\rx-elf\rx-elf/rx-elf/lib\libstdc++.a(string-inst.o)
                0xffc04c28                std::string::_M_replace_safe(unsigned long, unsigned long, char const*, unsigned long)
 .text._ZNSs6assignEPKcm
                0xffc04c58       0x88 C:\PROGRA~2\GCCFOR~2.201\rx-elf\rx-elf/rx-elf/lib\libstdc++.a(string-inst.o)
                0xffc04c58                std::string::assign(char const*, unsigned long)
 .text._ZNSsaSESt16initializer_listIcE
                0xffc04ce0        0xd C:\PROGRA~2\GCCFOR~2.201\rx-elf\rx-elf/rx-elf/lib\libstdc++.a(string-inst.o)
                0xffc04ce0                std::string::operator=(std::initializer_list<char>)
 .text._ZNSs6assignERKSsmm
                0xffc04ced       0x27 C:\PROGRA~2\GCCFOR~2.201\rx-elf\rx-elf/rx-elf/lib\libstdc++.a(string-inst.o)
                0xffc04ced                std::string::assign(std::string const&, unsigned long, unsigned long)
 .text._ZNSs6assignEPKc
                0xffc04d14       0x1c C:\PROGRA~2\GCCFOR~2.201\rx-elf\rx-elf/rx-elf/lib\libstdc++.a(string-inst.o)
                0xffc04d14                std::string::assign(char const*)
 .text._ZNSs6assignESt16initializer_listIcE
                0xffc04d30        0x4 C:\PROGRA~2\GCCFOR~2.201\rx-elf\rx-elf/rx-elf/lib\libstdc++.a(string-inst.o)
                0xffc04d30                std::string::assign(std::initializer_list<char>)
 .text._ZNSsaSEPKc
                0xffc04d34       0x1c C:\PROGRA~2\GCCFOR~2.201\rx-elf\rx-elf/rx-elf/lib\libstdc++.a(string-inst.o)
                0xffc04d34                std::string::operator=(char const*)
 .text._ZNSs6insertEmPKcm
                0xffc04d50       0xd8 C:\PROGRA~2\GCCFOR~2.201\rx-elf\rx-elf/rx-elf/lib\libstdc++.a(string-inst.o)
                0xffc04d50                std::string::insert(unsigned long, char const*, unsigned long)
 .text._ZNSs6insertEN9__gnu_cxx17__normal_iteratorIPcSsEESt16initializer_listIcE
                0xffc04e28        0x8 C:\PROGRA~2\GCCFOR~2.201\rx-elf\rx-elf/rx-elf/lib\libstdc++.a(string-inst.o)
                0xffc04e28                std::string::insert(__gnu_cxx::__normal_iterator<char*, std::string>, std::initializer_list<char>)
 .text._ZNSs6insertEmRKSsmm
                0xffc04e30       0x2b C:\PROGRA~2\GCCFOR~2.201\rx-elf\rx-elf/rx-elf/lib\libstdc++.a(string-inst.o)
                0xffc04e30                std::string::insert(unsigned long, std::string const&, unsigned long, unsigned long)
 .text._ZNSs6insertEmPKc
                0xffc04e5b       0x20 C:\PROGRA~2\GCCFOR~2.201\rx-elf\rx-elf/rx-elf/lib\libstdc++.a(string-inst.o)
                0xffc04e5b                std::string::insert(unsigned long, char const*)
 .text._ZNSs6insertEmRKSs
                0xffc04e7b        0xb C:\PROGRA~2\GCCFOR~2.201\rx-elf\rx-elf/rx-elf/lib\libstdc++.a(string-inst.o)
                0xffc04e7b                std::string::insert(unsigned long, std::string const&)
 .text._ZNSs8pop_backEv
                0xffc04e86       0x1f C:\PROGRA~2\GCCFOR~2.201\rx-elf\rx-elf/rx-elf/lib\libstdc++.a(string-inst.o)
                0xffc04e86                std::string::pop_back()
 .text._ZNSs4_Rep10_M_refcopyEv
                0xffc04ea5       0x15 C:\PROGRA~2\GCCFOR~2.201\rx-elf\rx-elf/rx-elf/lib\libstdc++.a(string-inst.o)
                0xffc04ea5                std::string::_Rep::_M_refcopy()
 *fill*         0xffc04eba        0x6 
 .text._ZNSs4_Rep8_M_cloneERKSaIcEm
                0xffc04ec0       0x58 C:\PROGRA~2\GCCFOR~2.201\rx-elf\rx-elf/rx-elf/lib\libstdc++.a(string-inst.o)
                0xffc04ec0                std::string::_Rep::_M_clone(std::allocator<char> const&, unsigned long)
 .text._ZNSs7reserveEm
                0xffc04f18       0x50 C:\PROGRA~2\GCCFOR~2.201\rx-elf\rx-elf/rx-elf/lib\libstdc++.a(string-inst.o)
                0xffc04f18                std::string::reserve(unsigned long)
 .text._ZNSs13shrink_to_fitEv
                0xffc04f68       0x68 C:\PROGRA~2\GCCFOR~2.201\rx-elf\rx-elf/rx-elf/lib\libstdc++.a(string-inst.o)
                0xffc04f68                std::string::shrink_to_fit()
 .text._ZNSs6appendERKSs
                0xffc04fd0       0x68 C:\PROGRA~2\GCCFOR~2.201\rx-elf\rx-elf/rx-elf/lib\libstdc++.a(string-inst.o)
                0xffc04fd0                std::string::append(std::string const&)
 .text._ZNSspLERKSs
                0xffc05038        0x4 C:\PROGRA~2\GCCFOR~2.201\rx-elf\rx-elf/rx-elf/lib\libstdc++.a(string-inst.o)
                0xffc05038                std::string::operator+=(std::string const&)
 *fill*         0xffc0503c        0x4 
 .text._ZNSs6appendERKSsmm
                0xffc05040       0x88 C:\PROGRA~2\GCCFOR~2.201\rx-elf\rx-elf/rx-elf/lib\libstdc++.a(string-inst.o)
                0xffc05040                std::string::append(std::string const&, unsigned long, unsigned long)
 .text._ZNSs6appendEPKcm
                0xffc050c8       0xa8 C:\PROGRA~2\GCCFOR~2.201\rx-elf\rx-elf/rx-elf/lib\libstdc++.a(string-inst.o)
                0xffc050c8                std::string::append(char const*, unsigned long)
 .text._ZNSspLESt16initializer_listIcE
                0xffc05170        0x4 C:\PROGRA~2\GCCFOR~2.201\rx-elf\rx-elf/rx-elf/lib\libstdc++.a(string-inst.o)
                0xffc05170                std::string::operator+=(std::initializer_list<char>)
 .text._ZNSs6appendEPKc
                0xffc05174       0x1c C:\PROGRA~2\GCCFOR~2.201\rx-elf\rx-elf/rx-elf/lib\libstdc++.a(string-inst.o)
                0xffc05174                std::string::append(char const*)
 .text._ZNSs6appendESt16initializer_listIcE
                0xffc05190        0x4 C:\PROGRA~2\GCCFOR~2.201\rx-elf\rx-elf/rx-elf/lib\libstdc++.a(string-inst.o)
                0xffc05190                std::string::append(std::initializer_list<char>)
 .text._ZNSspLEPKc
                0xffc05194       0x1c C:\PROGRA~2\GCCFOR~2.201\rx-elf\rx-elf/rx-elf/lib\libstdc++.a(string-inst.o)
                0xffc05194                std::string::operator+=(char const*)
 .text._ZNSs6appendEmc
                0xffc051b0       0x80 C:\PROGRA~2\GCCFOR~2.201\rx-elf\rx-elf/rx-elf/lib\libstdc++.a(string-inst.o)
                0xffc051b0                std::string::append(unsigned long, char)
 .text._ZNSs6resizeEmc
                0xffc05230       0x2e C:\PROGRA~2\GCCFOR~2.201\rx-elf\rx-elf/rx-elf/lib\libstdc++.a(string-inst.o)
                0xffc05230                std::string::resize(unsigned long, char)
 .text._ZNSs6resizeEm
                0xffc0525e        0x6 C:\PROGRA~2\GCCFOR~2.201\rx-elf\rx-elf/rx-elf/lib\libstdc++.a(string-inst.o)
                0xffc0525e                std::string::resize(unsigned long)
 *fill*         0xffc05264        0x4 
 .text._ZNSs9push_backEc
                0xffc05268       0x50 C:\PROGRA~2\GCCFOR~2.201\rx-elf\rx-elf/rx-elf/lib\libstdc++.a(string-inst.o)
                0xffc05268                std::string::push_back(char)
 .text._ZNSspLEc
                0xffc052b8       0x58 C:\PROGRA~2\GCCFOR~2.201\rx-elf\rx-elf/rx-elf/lib\libstdc++.a(string-inst.o)
                0xffc052b8                std::string::operator+=(char)
 .text._ZNSs4_Rep7_M_grabERKSaIcES2_
                0xffc05310       0x22 C:\PROGRA~2\GCCFOR~2.201\rx-elf\rx-elf/rx-elf/lib\libstdc++.a(string-inst.o)
                0xffc05310                std::string::_Rep::_M_grab(std::allocator<char> const&, std::allocator<char> const&)
 *fill*         0xffc05332        0x6 
 .text._ZNSsC2ERKSs
                0xffc05338       0x38 C:\PROGRA~2\GCCFOR~2.201\rx-elf\rx-elf/rx-elf/lib\libstdc++.a(string-inst.o)
                0xffc05338                std::basic_string<char, std::char_traits<char>, std::allocator<char> >::basic_string(std::string const&)
                0xffc05338                std::basic_string<char, std::char_traits<char>, std::allocator<char> >::basic_string(std::string const&)
 .text._ZNSs6assignERKSs
                0xffc05370       0x60 C:\PROGRA~2\GCCFOR~2.201\rx-elf\rx-elf/rx-elf/lib\libstdc++.a(string-inst.o)
                0xffc05370                std::string::assign(std::string const&)
 .text._ZNSsaSERKSs
                0xffc053d0        0x4 C:\PROGRA~2\GCCFOR~2.201\rx-elf\rx-elf/rx-elf/lib\libstdc++.a(string-inst.o)
                0xffc053d0                std::string::operator=(std::string const&)
 *fill*         0xffc053d4        0x4 
 .text._ZStplIcSt11char_traitsIcESaIcEESbIT_T0_T1_EPKS3_RKS6_
                0xffc053d8       0x98 C:\PROGRA~2\GCCFOR~2.201\rx-elf\rx-elf/rx-elf/lib\libstdc++.a(string-inst.o)
                0xffc053d8                std::basic_string<char, std::char_traits<char>, std::allocator<char> > std::operator+<char, std::char_traits<char>, std::allocator<char> >(char const*, std::basic_string<char, std::char_traits<char>, std::allocator<char> > const&)
 .text._ZStplIcSt11char_traitsIcESaIcEESbIT_T0_T1_ES3_RKS6_
                0xffc05470       0x90 C:\PROGRA~2\GCCFOR~2.201\rx-elf\rx-elf/rx-elf/lib\libstdc++.a(string-inst.o)
                0xffc05470                std::basic_string<char, std::char_traits<char>, std::allocator<char> > std::operator+<char, std::char_traits<char>, std::allocator<char> >(char, std::basic_string<char, std::char_traits<char>, std::allocator<char> > const&)
 .text._ZStplIcSt11char_traitsIcESaIcEESbIT_T0_T1_ERKS6_S8_
                0xffc05500       0x78 C:\PROGRA~2\GCCFOR~2.201\rx-elf\rx-elf/rx-elf/lib\libstdc++.a(string-inst.o)
                0xffc05500                std::basic_string<char, std::char_traits<char>, std::allocator<char> > std::operator+<char, std::char_traits<char>, std::allocator<char> >(std::basic_string<char, std::char_traits<char>, std::allocator<char> > const&, std::basic_string<char, std::char_traits<char>, std::allocator<char> > const&)
 .text._ZNSs12_S_constructIN9__gnu_cxx17__normal_iteratorIPcSsEEEES2_T_S4_RKSaIcESt20forward_iterator_tag
                0xffc05578       0x58 C:\PROGRA~2\GCCFOR~2.201\rx-elf\rx-elf/rx-elf/lib\libstdc++.a(string-inst.o)
                0xffc05578                char* std::string::_S_construct<__gnu_cxx::__normal_iterator<char*, std::string> >(__gnu_cxx::__normal_iterator<char*, std::string>, __gnu_cxx::__normal_iterator<char*, std::string>, std::allocator<char> const&, std::forward_iterator_tag)
 .text._ZNSsC2IN9__gnu_cxx17__normal_iteratorIPcSsEEEET_S4_RKSaIcE
                0xffc055d0       0x18 C:\PROGRA~2\GCCFOR~2.201\rx-elf\rx-elf/rx-elf/lib\libstdc++.a(string-inst.o)
                0xffc055d0                std::basic_string<char, std::char_traits<char>, std::allocator<char> >::basic_string<__gnu_cxx::__normal_iterator<char*, std::string> >(__gnu_cxx::__normal_iterator<char*, std::string>, __gnu_cxx::__normal_iterator<char*, std::string>, std::allocator<char> const&)
                0xffc055d0                std::basic_string<char, std::char_traits<char>, std::allocator<char> >::basic_string<__gnu_cxx::__normal_iterator<char*, std::string> >(__gnu_cxx::__normal_iterator<char*, std::string>, __gnu_cxx::__normal_iterator<char*, std::string>, std::allocator<char> const&)
 .text._ZNSs12_S_constructIPcEES0_T_S1_RKSaIcESt20forward_iterator_tag
                0xffc055e8       0x70 C:\PROGRA~2\GCCFOR~2.201\rx-elf\rx-elf/rx-elf/lib\libstdc++.a(string-inst.o)
                0xffc055e8                char* std::string::_S_construct<char*>(char*, char*, std::allocator<char> const&, std::forward_iterator_tag)
 .text._ZNSsC2ERKSsmm
                0xffc05658       0x3a C:\PROGRA~2\GCCFOR~2.201\rx-elf\rx-elf/rx-elf/lib\libstdc++.a(string-inst.o)
                0xffc05658                std::basic_string<char, std::char_traits<char>, std::allocator<char> >::basic_string(std::string const&, unsigned long, unsigned long)
                0xffc05658                std::basic_string<char, std::char_traits<char>, std::allocator<char> >::basic_string(std::string const&, unsigned long, unsigned long)
 .text._ZNKSs6substrEmm
                0xffc05692       0x2d C:\PROGRA~2\GCCFOR~2.201\rx-elf\rx-elf/rx-elf/lib\libstdc++.a(string-inst.o)
                0xffc05692                std::string::substr(unsigned long, unsigned long) const
 .text._ZNSsC2ERKSsmmRKSaIcE
                0xffc056bf       0x3a C:\PROGRA~2\GCCFOR~2.201\rx-elf\rx-elf/rx-elf/lib\libstdc++.a(string-inst.o)
                0xffc056bf                std::basic_string<char, std::char_traits<char>, std::allocator<char> >::basic_string(std::string const&, unsigned long, unsigned long, std::allocator<char> const&)
                0xffc056bf                std::basic_string<char, std::char_traits<char>, std::allocator<char> >::basic_string(std::string const&, unsigned long, unsigned long, std::allocator<char> const&)
 .text._ZNSsC2IPcEET_S1_RKSaIcE
                0xffc056f9       0x18 C:\PROGRA~2\GCCFOR~2.201\rx-elf\rx-elf/rx-elf/lib\libstdc++.a(string-inst.o)
                0xffc056f9                std::basic_string<char, std::char_traits<char>, std::allocator<char> >::basic_string<char*>(char*, char*, std::allocator<char> const&)
                0xffc056f9                std::basic_string<char, std::char_traits<char>, std::allocator<char> >::basic_string<char*>(char*, char*, std::allocator<char> const&)
 *fill*         0xffc05711        0x7 
 .text._ZNSs12_S_constructIPKcEEPcT_S3_RKSaIcESt20forward_iterator_tag
                0xffc05718       0x70 C:\PROGRA~2\GCCFOR~2.201\rx-elf\rx-elf/rx-elf/lib\libstdc++.a(string-inst.o)
                0xffc05718                char* std::string::_S_construct<char const*>(char const*, char const*, std::allocator<char> const&, std::forward_iterator_tag)
 .text._ZNSsC2EPKcmRKSaIcE
                0xffc05788       0x18 C:\PROGRA~2\GCCFOR~2.201\rx-elf\rx-elf/rx-elf/lib\libstdc++.a(string-inst.o)
                0xffc05788                std::basic_string<char, std::char_traits<char>, std::allocator<char> >::basic_string(char const*, unsigned long, std::allocator<char> const&)
                0xffc05788                std::basic_string<char, std::char_traits<char>, std::allocator<char> >::basic_string(char const*, unsigned long, std::allocator<char> const&)
 .text._ZNSs7replaceEmmPKcm
                0xffc057a0      0x198 C:\PROGRA~2\GCCFOR~2.201\rx-elf\rx-elf/rx-elf/lib\libstdc++.a(string-inst.o)
                0xffc057a0                std::string::replace(unsigned long, unsigned long, char const*, unsigned long)
 .text._ZNSs7replaceEmmRKSs
                0xffc05938        0xf C:\PROGRA~2\GCCFOR~2.201\rx-elf\rx-elf/rx-elf/lib\libstdc++.a(string-inst.o)
                0xffc05938                std::string::replace(unsigned long, unsigned long, std::string const&)
 .text._ZNSs7replaceEmmRKSsmm
                0xffc05947       0x37 C:\PROGRA~2\GCCFOR~2.201\rx-elf\rx-elf/rx-elf/lib\libstdc++.a(string-inst.o)
                0xffc05947                std::string::replace(unsigned long, unsigned long, std::string const&, unsigned long, unsigned long)
 .text._ZNSs7replaceEmmPKc
                0xffc0597e       0x24 C:\PROGRA~2\GCCFOR~2.201\rx-elf\rx-elf/rx-elf/lib\libstdc++.a(string-inst.o)
                0xffc0597e                std::string::replace(unsigned long, unsigned long, char const*)
 .text._ZNSs7replaceEN9__gnu_cxx17__normal_iteratorIPcSsEES2_PKcm
                0xffc059a2       0x14 C:\PROGRA~2\GCCFOR~2.201\rx-elf\rx-elf/rx-elf/lib\libstdc++.a(string-inst.o)
                0xffc059a2                std::string::replace(__gnu_cxx::__normal_iterator<char*, std::string>, __gnu_cxx::__normal_iterator<char*, std::string>, char const*, unsigned long)
 .text._ZNSs7replaceEN9__gnu_cxx17__normal_iteratorIPcSsEES2_RKSs
                0xffc059b6       0x17 C:\PROGRA~2\GCCFOR~2.201\rx-elf\rx-elf/rx-elf/lib\libstdc++.a(string-inst.o)
                0xffc059b6                std::string::replace(__gnu_cxx::__normal_iterator<char*, std::string>, __gnu_cxx::__normal_iterator<char*, std::string>, std::string const&)
 .text._ZNSs7replaceEN9__gnu_cxx17__normal_iteratorIPcSsEES2_PKc
                0xffc059cd       0x27 C:\PROGRA~2\GCCFOR~2.201\rx-elf\rx-elf/rx-elf/lib\libstdc++.a(string-inst.o)
                0xffc059cd                std::string::replace(__gnu_cxx::__normal_iterator<char*, std::string>, __gnu_cxx::__normal_iterator<char*, std::string>, char const*)
 .text._ZNSs7replaceEN9__gnu_cxx17__normal_iteratorIPcSsEES2_S1_S1_
                0xffc059f4       0x1e C:\PROGRA~2\GCCFOR~2.201\rx-elf\rx-elf/rx-elf/lib\libstdc++.a(string-inst.o)
                0xffc059f4                std::string::replace(__gnu_cxx::__normal_iterator<char*, std::string>, __gnu_cxx::__normal_iterator<char*, std::string>, char*, char*)
 .text._ZNSs7replaceEN9__gnu_cxx17__normal_iteratorIPcSsEES2_PKcS4_
                0xffc05a12       0x1e C:\PROGRA~2\GCCFOR~2.201\rx-elf\rx-elf/rx-elf/lib\libstdc++.a(string-inst.o)
                0xffc05a12                std::string::replace(__gnu_cxx::__normal_iterator<char*, std::string>, __gnu_cxx::__normal_iterator<char*, std::string>, char const*, char const*)
 .text._ZNSs7replaceEN9__gnu_cxx17__normal_iteratorIPcSsEES2_St16initializer_listIcE
                0xffc05a30       0x1e C:\PROGRA~2\GCCFOR~2.201\rx-elf\rx-elf/rx-elf/lib\libstdc++.a(string-inst.o)
                0xffc05a30                std::string::replace(__gnu_cxx::__normal_iterator<char*, std::string>, __gnu_cxx::__normal_iterator<char*, std::string>, std::initializer_list<char>)
 .text._ZNSs7replaceEN9__gnu_cxx17__normal_iteratorIPcSsEES2_S2_S2_
                0xffc05a4e       0x1e C:\PROGRA~2\GCCFOR~2.201\rx-elf\rx-elf/rx-elf/lib\libstdc++.a(string-inst.o)
                0xffc05a4e                std::string::replace(__gnu_cxx::__normal_iterator<char*, std::string>, __gnu_cxx::__normal_iterator<char*, std::string>, __gnu_cxx::__normal_iterator<char*, std::string>, __gnu_cxx::__normal_iterator<char*, std::string>)
 .text._ZNSs7replaceEN9__gnu_cxx17__normal_iteratorIPcSsEES2_NS0_IPKcSsEES5_
                0xffc05a6c       0x1e C:\PROGRA~2\GCCFOR~2.201\rx-elf\rx-elf/rx-elf/lib\libstdc++.a(string-inst.o)
                0xffc05a6c                std::string::replace(__gnu_cxx::__normal_iterator<char*, std::string>, __gnu_cxx::__normal_iterator<char*, std::string>, __gnu_cxx::__normal_iterator<char const*, std::string>, __gnu_cxx::__normal_iterator<char const*, std::string>)
 .text._ZNSsC2EPKcRKSaIcE
                0xffc05a8a       0x38 C:\PROGRA~2\GCCFOR~2.201\rx-elf\rx-elf/rx-elf/lib\libstdc++.a(string-inst.o)
                0xffc05a8a                std::basic_string<char, std::char_traits<char>, std::allocator<char> >::basic_string(char const*, std::allocator<char> const&)
                0xffc05a8a                std::basic_string<char, std::char_traits<char>, std::allocator<char> >::basic_string(char const*, std::allocator<char> const&)
 .text._ZNSsC2ESt16initializer_listIcERKSaIcE
                0xffc05ac2       0x18 C:\PROGRA~2\GCCFOR~2.201\rx-elf\rx-elf/rx-elf/lib\libstdc++.a(string-inst.o)
                0xffc05ac2                std::basic_string<char, std::char_traits<char>, std::allocator<char> >::basic_string(std::initializer_list<char>, std::allocator<char> const&)
                0xffc05ac2                std::basic_string<char, std::char_traits<char>, std::allocator<char> >::basic_string(std::initializer_list<char>, std::allocator<char> const&)
 .text._ZNSsC2IPKcEET_S2_RKSaIcE
                0xffc05ada       0x18 C:\PROGRA~2\GCCFOR~2.201\rx-elf\rx-elf/rx-elf/lib\libstdc++.a(string-inst.o)
                0xffc05ada                std::basic_string<char, std::char_traits<char>, std::allocator<char> >::basic_string<char const*>(char const*, char const*, std::allocator<char> const&)
                0xffc05ada                std::basic_string<char, std::char_traits<char>, std::allocator<char> >::basic_string<char const*>(char const*, char const*, std::allocator<char> const&)
 .text._ZN9__gnu_cxxeqIPcSsEEbRKNS_17__normal_iteratorIT_T0_EES7_
                0xffc05af2        0x9 C:\PROGRA~2\GCCFOR~2.201\rx-elf\rx-elf/rx-elf/lib\libstdc++.a(string-inst.o)
                0xffc05af2                bool __gnu_cxx::operator==<char*, std::string>(__gnu_cxx::__normal_iterator<char*, std::string> const&, __gnu_cxx::__normal_iterator<char*, std::string> const&)
 .text._ZN9__gnu_cxxeqIPKcSsEEbRKNS_17__normal_iteratorIT_T0_EES8_
                0xffc05afb        0x9 C:\PROGRA~2\GCCFOR~2.201\rx-elf\rx-elf/rx-elf/lib\libstdc++.a(string-inst.o)
                0xffc05afb                bool __gnu_cxx::operator==<char const*, std::string>(__gnu_cxx::__normal_iterator<char const*, std::string> const&, __gnu_cxx::__normal_iterator<char const*, std::string> const&)
 .text._ZNSt11regex_errorD2Ev
                0xffc05b04        0xa C:\PROGRA~2\GCCFOR~2.201\rx-elf\rx-elf/rx-elf/lib\libstdc++.a(regex.o)
                0xffc05b04                std::regex_error::~regex_error()
                0xffc05b04                std::regex_error::~regex_error()
 .text._ZNSt11regex_errorD0Ev
                0xffc05b0e       0x16 C:\PROGRA~2\GCCFOR~2.201\rx-elf\rx-elf/rx-elf/lib\libstdc++.a(regex.o)
                0xffc05b0e                std::regex_error::~regex_error()
 *fill*         0xffc05b24        0x4 
 .text._ZNSt11regex_errorC2ENSt15regex_constants10error_typeE
                0xffc05b28       0x98 C:\PROGRA~2\GCCFOR~2.201\rx-elf\rx-elf/rx-elf/lib\libstdc++.a(regex.o)
                0xffc05b28                std::regex_error::regex_error(std::regex_constants::error_type)
                0xffc05b28                std::regex_error::regex_error(std::regex_constants::error_type)
 *(P)
 P              0xffc05bc0     0x17a8 ./src/main.o
                0xffc05bc0                __main
                0xffc05bf0                periperalInit()
                0xffc05c46                startUpInit()
                0xffc05e22                timeInterrupt
 P              0xffc07368      0x438 ./src/mode/mode.o
                0xffc07368                modeSelect()
 P              0xffc077a0      0x858 ./src/mode/mode_B.o
                0xffc077a0                mode_B()
 P              0xffc07ff8        0xe ./src/mode/mode_G.o
                0xffc07ff8                mode_G()
 *fill*         0xffc08006        0x2 
 P              0xffc08008      0x148 ./src/mode/mode_GB.o
                0xffc08008                mode_GB()
 P              0xffc08150      0x168 ./src/mode/mode_N.o
                0xffc08150                mode_N()
 P              0xffc082b8       0x18 ./src/mode/mode_R.o
                0xffc082b8                mode_R()
 P              0xffc082d0        0xe ./src/mode/mode_RB.o
                0xffc082d0                mode_RB()
 P              0xffc082de        0xe ./src/mode/mode_RG.o
                0xffc082de                mode_RG()
 *fill*         0xffc082ec        0x4 
 P              0xffc082f0      0x240 ./src/mode/mode_RGB.o
                0xffc082f0                mode_RGB()
 P              0xffc08530        0x1 ./src/other/hardware_setup.o
                0xffc08530                HardwareSetup
 P              0xffc08531      0x1e4 ./src/other/interrupt_handlers.o
                0xffc08531                INT_Excep_SuperVisorInst
                0xffc08533                INT_Excep_AccessInst
                0xffc08535                INT_Excep_UndefinedInst
                0xffc08537                INT_Excep_FloatingPoint
                0xffc08539                INT_NonMaskableInterrupt
                0xffc0853b                Dummy
                0xffc0853d                INT_Excep_BRK
                0xffc0853f                INT_Excep_BSC_BUSERR
                0xffc08541                INT_Excep_RAM_RAMERR
                0xffc08543                INT_Excep_FCU_FIFERR
                0xffc08545                INT_Excep_FCU_FRDYI
                0xffc08547                INT_Excep_ICU_SWINT2
                0xffc08549                INT_Excep_ICU_SWINT
                0xffc0854b                INT_Excep_CMT0_CMI0
                0xffc08559                INT_Excep_CMT1_CMI1
                0xffc08567                INT_Excep_CMTW0_CMWI0
                0xffc08569                INT_Excep_CMTW1_CMWI1
                0xffc0856b                INT_Excep_USBA_D0FIFO2
                0xffc0856d                INT_Excep_USBA_D1FIFO2
                0xffc0856f                INT_Excep_USB0_D0FIFO0
                0xffc08571                INT_Excep_USB0_D1FIFO0
                0xffc08573                INT_Excep_RSPI0_SPRI0
                0xffc08575                INT_Excep_RSPI0_SPTI0
                0xffc08577                INT_Excep_RSPI1_SPRI1
                0xffc08579                INT_Excep_RSPI1_SPTI1
                0xffc0857b                INT_Excep_QSPI_SPRI
                0xffc0857d                INT_Excep_QSPI_SPTI
                0xffc0857f                INT_Excep_SDHI_SBFAI
                0xffc08581                INT_Excep_MMCIF_MBFAI
                0xffc08583                INT_Excep_SSI0_SSITXI0
                0xffc08585                INT_Excep_SSI0_SSIRXI0
                0xffc08587                INT_Excep_SSI1_SSIRTI1
                0xffc08589                INT_Excep_SRC_IDEI
                0xffc0858b                INT_Excep_SRC_ODFI
                0xffc0858d                INT_Excep_RIIC0_RXI0
                0xffc0858f                INT_Excep_RIIC0_TXI0
                0xffc08591                INT_Excep_RIIC2_RXI2
                0xffc08593                INT_Excep_RIIC2_TXI2
                0xffc08595                INT_Excep_SCI0_RXI0
                0xffc08597                INT_Excep_SCI0_TXI0
                0xffc08599                INT_Excep_SCI1_RXI1
                0xffc0859b                INT_Excep_SCI1_TXI1
                0xffc0859d                INT_Excep_SCI2_RXI2
                0xffc0859f                INT_Excep_SCI2_TXI2
                0xffc085a1                INT_Excep_ICU_IRQ0
                0xffc085a3                INT_Excep_ICU_IRQ1
                0xffc085a5                INT_Excep_ICU_IRQ2
                0xffc085a7                INT_Excep_ICU_IRQ3
                0xffc085a9                INT_Excep_ICU_IRQ4
                0xffc085ab                INT_Excep_ICU_IRQ5
                0xffc085ad                INT_Excep_ICU_IRQ6
                0xffc085af                INT_Excep_ICU_IRQ7
                0xffc085b1                INT_Excep_ICU_IRQ8
                0xffc085b3                INT_Excep_ICU_IRQ9
                0xffc085b5                INT_Excep_ICU_IRQ10
                0xffc085b7                INT_Excep_ICU_IRQ11
                0xffc085b9                INT_Excep_ICU_IRQ12
                0xffc085bb                INT_Excep_ICU_IRQ13
                0xffc085bd                INT_Excep_ICU_IRQ14
                0xffc085bf                INT_Excep_ICU_IRQ15
                0xffc085c1                INT_Excep_SCI3_RXI3
                0xffc085c3                INT_Excep_SCI3_TXI3
                0xffc085c5                INT_Excep_SCI4_RXI4
                0xffc085c7                INT_Excep_SCI4_TXI4
                0xffc085c9                INT_Excep_SCI5_RXI5
                0xffc085cb                INT_Excep_SCI5_TXI5
                0xffc085cd                INT_Excep_SCI6_RXI6
                0xffc085cf                INT_Excep_SCI6_TXI6
                0xffc085d1                INT_Excep_LVD1_LVD1
                0xffc085d3                INT_Excep_LVD2_LVD2
                0xffc085d5                INT_Excep_USB0_USBR0
                0xffc085d7                INT_Excep_RTC_ALM
                0xffc085d9                INT_Excep_RTC_PRD
                0xffc085db                INT_Excep_USBA_USBAR
                0xffc085dd                INT_Excep_IWDT_IWUNI
                0xffc085df                INT_Excep_WDT_WUNI
                0xffc085e1                INT_Excep_PDC_PCDFI
                0xffc085e3                INT_Excep_SCI7_RXI7
                0xffc085e5                INT_Excep_SCI7_TXI7
                0xffc085e7                INT_Excep_SCIFA8_RXIF8
                0xffc085e9                INT_Excep_SCIFA8_TXIF8
                0xffc085eb                INT_Excep_SCIFA9_RXIF9
                0xffc085ed                INT_Excep_SCIFA9_TXIF9
                0xffc085ef                INT_Excep_SCIFA10_RXIF10
                0xffc085f1                INT_Excep_SCIFA10_TXIF10
                0xffc085f3                INT_Excep_ICU_GROUPBE0
                0xffc085f5                INT_Excep_ICU_GROUPBL0
                0xffc085f7                INT_Excep_ICU_GROUPBL1
                0xffc085f9                INT_Excep_ICU_GROUPAL0
                0xffc085fb                INT_Excep_ICU_GROUPAL1
                0xffc085fd                INT_Excep_SCIFA11_RXIF11
                0xffc085ff                INT_Excep_SCIFA11_TXIF11
                0xffc08601                INT_Excep_SCI12_RXI12
                0xffc08603                INT_Excep_SCI12_TXI12
                0xffc08605                INT_Excep_DMAC_DMAC0I
                0xffc08607                INT_Excep_DMAC_DMAC1I
                0xffc08609                INT_Excep_DMAC_DMAC2I
                0xffc0860b                INT_Excep_DMAC_DMAC3I
                0xffc0860d                INT_Excep_DMAC_DMAC74I
                0xffc0860f                INT_Excep_OST_OST
                0xffc08611                INT_Excep_EXDMAC_EXDMAC0I
                0xffc08613                INT_Excep_EXDMAC_EXDMAC1I
                0xffc08615                INT_Excep_PERIB_INTB128
                0xffc08617                INT_Excep_PERIB_INTB129
                0xffc08619                INT_Excep_PERIB_INTB130
                0xffc0861b                INT_Excep_PERIB_INTB131
                0xffc0861d                INT_Excep_PERIB_INTB132
                0xffc0861f                INT_Excep_PERIB_INTB133
                0xffc08621                INT_Excep_PERIB_INTB134
                0xffc08623                INT_Excep_PERIB_INTB135
                0xffc08625                INT_Excep_PERIB_INTB136
                0xffc08627                INT_Excep_PERIB_INTB137
                0xffc08629                INT_Excep_PERIB_INTB138
                0xffc0862b                INT_Excep_PERIB_INTB139
                0xffc0862d                INT_Excep_PERIB_INTB140
                0xffc0862f                INT_Excep_PERIB_INTB141
                0xffc08631                INT_Excep_PERIB_INTB142
                0xffc08633                INT_Excep_PERIB_INTB143
                0xffc08635                INT_Excep_PERIB_INTB144
                0xffc08637                INT_Excep_PERIB_INTB145
                0xffc08639                INT_Excep_PERIB_INTB146
                0xffc0863b                INT_Excep_PERIB_INTB147
                0xffc0863d                INT_Excep_PERIB_INTB148
                0xffc0863f                INT_Excep_PERIB_INTB149
                0xffc08641                INT_Excep_PERIB_INTB150
                0xffc08643                INT_Excep_PERIB_INTB151
                0xffc08645                INT_Excep_PERIB_INTB152
                0xffc08647                INT_Excep_PERIB_INTB153
                0xffc08649                INT_Excep_PERIB_INTB154
                0xffc0864b                INT_Excep_PERIB_INTB155
                0xffc0864d                INT_Excep_PERIB_INTB156
                0xffc0864f                INT_Excep_PERIB_INTB157
                0xffc08651                INT_Excep_PERIB_INTB158
                0xffc08653                INT_Excep_PERIB_INTB159
                0xffc08655                INT_Excep_PERIB_INTB160
                0xffc08657                INT_Excep_PERIB_INTB161
                0xffc08659                INT_Excep_PERIB_INTB162
                0xffc0865b                INT_Excep_PERIB_INTB163
                0xffc0865d                INT_Excep_PERIB_INTB164
                0xffc0865f                INT_Excep_PERIB_INTB165
                0xffc08661                INT_Excep_PERIB_INTB166
                0xffc08663                INT_Excep_PERIB_INTB167
                0xffc08665                INT_Excep_PERIB_INTB168
                0xffc08667                INT_Excep_PERIB_INTB169
                0xffc08669                INT_Excep_PERIB_INTB170
                0xffc0866b                INT_Excep_PERIB_INTB171
                0xffc0866d                INT_Excep_PERIB_INTB172
                0xffc0866f                INT_Excep_PERIB_INTB173
                0xffc08671                INT_Excep_PERIB_INTB174
                0xffc08673                INT_Excep_PERIB_INTB175
                0xffc08675                INT_Excep_PERIB_INTB176
                0xffc08677                INT_Excep_PERIB_INTB177
                0xffc08679                INT_Excep_PERIB_INTB178
                0xffc0867b                INT_Excep_PERIB_INTB179
                0xffc0867d                INT_Excep_PERIB_INTB180
                0xffc0867f                INT_Excep_PERIB_INTB181
                0xffc08681                INT_Excep_PERIB_INTB182
                0xffc08683                INT_Excep_PERIB_INTB183
                0xffc08685                INT_Excep_PERIB_INTB184
                0xffc08687                INT_Excep_PERIB_INTB185
                0xffc08689                INT_Excep_PERIB_INTB186
                0xffc0868b                INT_Excep_PERIB_INTB187
                0xffc0868d                INT_Excep_PERIB_INTB188
                0xffc0868f                INT_Excep_PERIB_INTB189
                0xffc08691                INT_Excep_PERIB_INTB190
                0xffc08693                INT_Excep_PERIB_INTB191
                0xffc08695                INT_Excep_PERIB_INTB192
                0xffc08697                INT_Excep_PERIB_INTB193
                0xffc08699                INT_Excep_PERIB_INTB194
                0xffc0869b                INT_Excep_PERIB_INTB195
                0xffc0869d                INT_Excep_PERIB_INTB196
                0xffc0869f                INT_Excep_PERIB_INTB197
                0xffc086a1                INT_Excep_PERIB_INTB198
                0xffc086a3                INT_Excep_PERIB_INTB199
                0xffc086a5                INT_Excep_PERIB_INTB200
                0xffc086a7                INT_Excep_PERIB_INTB201
                0xffc086a9                INT_Excep_PERIB_INTB202
                0xffc086ab                INT_Excep_PERIB_INTB203
                0xffc086ad                INT_Excep_PERIB_INTB204
                0xffc086af                INT_Excep_PERIB_INTB205
                0xffc086b1                INT_Excep_PERIB_INTB206
                0xffc086b3                INT_Excep_PERIB_INTB207
                0xffc086b5                INT_Excep_PERIA_INTA208
                0xffc086b7                INT_Excep_PERIA_INTA209
                0xffc086b9                INT_Excep_PERIA_INTA210
                0xffc086bb                INT_Excep_PERIA_INTA211
                0xffc086bd                INT_Excep_PERIA_INTA212
                0xffc086bf                INT_Excep_PERIA_INTA213
                0xffc086c1                INT_Excep_PERIA_INTA214
                0xffc086c3                INT_Excep_PERIA_INTA215
                0xffc086c5                INT_Excep_PERIA_INTA216
                0xffc086c7                INT_Excep_PERIA_INTA217
                0xffc086c9                INT_Excep_PERIA_INTA218
                0xffc086cb                INT_Excep_PERIA_INTA219
                0xffc086cd                INT_Excep_PERIA_INTA220
                0xffc086cf                INT_Excep_PERIA_INTA221
                0xffc086d1                INT_Excep_PERIA_INTA222
                0xffc086d3                INT_Excep_PERIA_INTA223
                0xffc086d5                INT_Excep_PERIA_INTA224
                0xffc086d7                INT_Excep_PERIA_INTA225
                0xffc086d9                INT_Excep_PERIA_INTA226
                0xffc086db                INT_Excep_PERIA_INTA227
                0xffc086dd                INT_Excep_PERIA_INTA228
                0xffc086df                INT_Excep_PERIA_INTA229
                0xffc086e1                INT_Excep_PERIA_INTA230
                0xffc086e3                INT_Excep_PERIA_INTA231
                0xffc086e5                INT_Excep_PERIA_INTA232
                0xffc086e7                INT_Excep_PERIA_INTA233
                0xffc086e9                INT_Excep_PERIA_INTA234
                0xffc086eb                INT_Excep_PERIA_INTA235
                0xffc086ed                INT_Excep_PERIA_INTA236
                0xffc086ef                INT_Excep_PERIA_INTA237
                0xffc086f1                INT_Excep_PERIA_INTA238
                0xffc086f3                INT_Excep_PERIA_INTA239
                0xffc086f5                INT_Excep_PERIA_INTA240
                0xffc086f7                INT_Excep_PERIA_INTA241
                0xffc086f9                INT_Excep_PERIA_INTA242
                0xffc086fb                INT_Excep_PERIA_INTA243
                0xffc086fd                INT_Excep_PERIA_INTA244
                0xffc086ff                INT_Excep_PERIA_INTA245
                0xffc08701                INT_Excep_PERIA_INTA246
                0xffc08703                INT_Excep_PERIA_INTA247
                0xffc08705                INT_Excep_PERIA_INTA248
                0xffc08707                INT_Excep_PERIA_INTA249
                0xffc08709                INT_Excep_PERIA_INTA250
                0xffc0870b                INT_Excep_PERIA_INTA251
                0xffc0870d                INT_Excep_PERIA_INTA252
                0xffc0870f                INT_Excep_PERIA_INTA253
                0xffc08711                INT_Excep_PERIA_INTA254
                0xffc08713                INT_Excep_PERIA_INTA255
 P              0xffc08715        0x0 ./src/other/reset_program.o
 P              0xffc08715        0x0 ./src/other/vector_table.o
 *fill*         0xffc08715        0x3 
 P              0xffc08718      0x640 ./src/peripheral/ad.o
                0xffc08718                initAD()
                0xffc0893b                startAD_AN000()
                0xffc0896f                startAD_AN001()
                0xffc0899f                startAD_AN002()
                0xffc089cf                startAD_AN003()
                0xffc089ff                startAD_AN004()
                0xffc08a2f                startAD_AN005()
                0xffc08a5f                startAD_AN006()
                0xffc08a8f                startAD_AN007()
                0xffc08ac0                startAD_AN108()
                0xffc08af7                startAD_AN109()
                0xffc08b2f                startAD_AN110()
                0xffc08b67                startAD_All()
 P              0xffc08d58      0x120 ./src/peripheral/clock.o
                0xffc08d58                initClock()
 P              0xffc08e78       0x6b ./src/peripheral/da.o
                0xffc08e78                initDA()
                0xffc08ec8                setDA(unsigned short)
                0xffc08eda                getDA()
 P              0xffc08ee3       0x78 ./src/peripheral/gpio.o
                0xffc08ee3                initGPIO()
 P              0xffc08f5b       0xe6 ./src/peripheral/phaseCounting.o
                0xffc08f5b                initMTU1()
                0xffc08fcd                initMTU2()
 P              0xffc09041      0x1ee ./src/peripheral/pwm.o
                0xffc09041                initMTU3()
                0xffc090d2                initMTU4()
                0xffc09179                setDutyMTU3(float)
                0xffc091c5                setDutyMTU4(float)
                0xffc0921d                getDutyMTU3()
                0xffc09226                getDutyMTU4()
 P              0xffc0922f       0x69 ./src/peripheral/r_init_non_existent_port.o
                0xffc0922f                R_INIT_NonExistentPort()
 P              0xffc09298      0x320 ./src/peripheral/spi.o
                0xffc09298                initTMR0()
                0xffc092cc                initRSPI0()
                0xffc093dd                communicate8bitRSPI0(unsigned char)
                0xffc093fa                communicate8bitRSPI1(unsigned char)
                0xffc0941a                setEnableRSPI0(unsigned char)
                0xffc0942c                setEnableRSPI1(unsigned char)
                0xffc0943e                initRSPI1()
                0xffc0951a                communicateNbyteRSPI0(unsigned char*, unsigned char*, unsigned char)
                0xffc09565                communicateNbyteRSPI1(unsigned char*, unsigned char*, unsigned char)
 P              0xffc095b8      0x149 ./src/peripheral/timeInterrupt.o
                0xffc095b8                initCMT2()
                0xffc095de                initCMT0()
                0xffc09619                setPriorityCMT0(unsigned char)
                0xffc0962e                startCMT0()
                0xffc0963a                stopCMT0()
                0xffc09646                endTimeuCountIntCMT0()
                0xffc09667                getTimeuCountIntCMT0()
                0xffc09670                initCMT1()
                0xffc096aa                setPriorityCMT1(unsigned char)
                0xffc096bf                startCMT1()
                0xffc096cb                stopCMT1()
                0xffc096d7                endTimeuCountIntCMT1()
                0xffc096f8                getTimeuCountIntCMT1()
 *fill*         0xffc09701        0x7 
 P              0xffc09708      0x240 ./src/peripheral/timer.o
                0xffc09708                initTPU0()
                0xffc09741                initCMTW0()
                0xffc09799                initCMTW1()
                0xffc097e7                waitClockCount(unsigned long)
                0xffc09808                waitusec(unsigned long)
                0xffc0982b                waitmsec(unsigned long)
                0xffc09850                startTimeuCount()
                0xffc09860                getTimeuCount()
                0xffc09875                endTimeuCount()
                0xffc09890                waitClockCount_sub(unsigned long)
                0xffc098af                waitusec_sub(unsigned long)
                0xffc098d3                waitmsec_sub(unsigned long)
                0xffc098f9                startTimeuCount_sub()
                0xffc0990a                getTimeuCount_sub()
                0xffc09921                endTimeuCount_sub()
                0xffc0992d                getElapsedMsec()
 P              0xffc09948     0x1b40 ./src/peripheral/uart.o
                0xffc09948                fetchCommand()
                0xffc09b6d                initSCI1()
                0xffc09c03                initSCI2()
                0xffc09c94                initSCIFA9()
                0xffc09d3e                put1byte(char)
                0xffc09d58                putnbyte(char*, int)
                0xffc09d7e                myprintf(char const*, ...)
                0xffc09dbf                put1byte2(char)
                0xffc09dd8                putnbyte2(char*, int)
                0xffc09dfe                myprintf2(char const*, ...)
                0xffc09e3f                retrieveDatafromFRDR()
                0xffc09ecd                sendDatafromTransBuff()
                0xffc09f83                myprintf3_Dbg(char const*, ...)
                0xffc09f8a                packDataMaze(unsigned char, unsigned char*)
                0xffc0a0b1                set2ByteVal(unsigned short, float, float)
                0xffc0a0ca                set2ByteVal(unsigned short, unsigned short)
                0xffc0a0dd                getPointerOfPeriodicMsg()
                0xffc0a0e4                packData(unsigned char*)
                0xffc0afe4                sendPeriodicMsg()
                0xffc0b089                putnbyte3(unsigned char*, unsigned short)
                0xffc0b11c                myprintf3(char const*, ...)
                0xffc0b1cb                execCommand(unsigned char*)
 P              0xffc0b488       0x60 ./src/robot_object/abcled.o
                0xffc0b488                AbstructLED::update()
                0xffc0b4cf                AbstructLED::turn(unsigned char)
                0xffc0b4d9                AbstructLED::flash(unsigned short, unsigned short)
 P              0xffc0b4e8       0x42 ./src/robot_object/fcled.o
                0xffc0b4e8                LED_R::setState(unsigned char)
                0xffc0b4fe                LED_G::setState(unsigned char)
                0xffc0b514                LED_B::setState(unsigned char)
 P              0xffc0b52a        0x0 ./src/robot_object/gamepad.o
 P              0xffc0b52a        0x0 ./src/robot_object/mouse.o
 P              0xffc0b52a        0x0 ./src/robot_object/tactsw.o
 *fill*         0xffc0b52a        0x6 
 P              0xffc0b530      0xa10 ./src/umouse_object/imu.o
                0xffc0b530                MPU9250::whoAmI()
                0xffc0b548                MPU9250::writeReg(unsigned char, unsigned char)
                0xffc0b55b                MPU9250::readReg(unsigned char)
                0xffc0b577                MPU9250::init()
                0xffc0b633                MPU9250::update()
                0xffc0b8c2                MPU9250::calibOmegaOffset(unsigned long)
                0xffc0ba13                MPU9250::calibAccOffset(unsigned long)
                0xffc0bb63                Icm20608G::whoAmI()
                0xffc0bb7b                Icm20608G::writeReg(unsigned char, unsigned char)
                0xffc0bb8e                Icm20608G::readReg(unsigned char)
                0xffc0bbaa                Icm20608G::init()
                0xffc0bc46                Icm20608G::update()
                0xffc0be28                Icm20608G::calibOmegaOffset()
 P              0xffc0bf40        0x0 ./src/umouse_object/maze.o
 P              0xffc0bf40        0x0 ./src/umouse_object/mpu9250_spi.o
 P              0xffc0bf40     0x5cd8 ./src/umouse_object/sound.o
                0xffc0bf40                SoundManager::init()
                0xffc0bf85                SoundManager::setWave(unsigned char, unsigned char, unsigned char, unsigned char)
                0xffc0c2c6                SoundManager::update()
                0xffc0c432                SoundManager::clearBuff()
                0xffc0c4ce                SoundManager::calcWaveVal(unsigned long)
                0xffc0c582                timeInterrupt_sub
                0xffc0c66f                soundUpdate()
                0xffc0c798                addBgmList(void (*)())
                0xffc0c8d4                bpmTest(float)
                0xffc0c9a8                GB()
                0xffc0cba9                SEA()
                0xffc0cda9                SEB()
                0xffc0cfa9                SEC()
                0xffc0d1a9                famima()
                0xffc0d4fe                famimaMinor()
                0xffc0d856                randomNote(unsigned short)
                0xffc0dbaa                otenba()
                0xffc0e157                wily()
                0xffc0e580                robotol()
                0xffc0f0b5                gamecube()
                0xffc0f92e                togetoge()
                0xffc1002e                owen()
                0xffc10b58                road27()
                0xffc11526                sky_high()
 P              0xffc11c18        0x0 ./src/umouse_object/sound__.o
 P              0xffc11c18      0x218 ./src/utility/myUtil.o
                0xffc11c18                concatenate2Byte_int(unsigned char, unsigned char)
                0xffc11c23                concatenate2Byte_uint(unsigned char, unsigned char)
                0xffc11c2e                concatenate4Byte_uint(unsigned char, unsigned char, unsigned char, unsigned char)
                0xffc11c42                quickSort_int16(short*, unsigned long, unsigned long)
                0xffc11cf7                constrain(float, float, float)
                0xffc11d08                constrainH(float, float)
                0xffc11d10                constrainL(float, float)
                0xffc11d18                byteH(unsigned short)
                0xffc11d1d                byteL(unsigned short)
                0xffc11d20                xor32()
                0xffc11d3d                xor64()
                0xffc11d7f                xor96()
                0xffc11db7                xor128()
                0xffc11df0                shortFreqNoise()
                0xffc11e0f                longFreqNoise()
 P              0xffc11e30        0xd libumouse.a(abort.o)
                0xffc11e30                abort
 P              0xffc11e3d       0x10 libumouse.a(cxa_atexit.o)
                0xffc11e3d                __cxa_atexit
 P              0xffc11e4d       0x12 libumouse.a(exit.o)
                0xffc11e4d                _exit
 *fill*         0xffc11e5f        0x1 
 P              0xffc11e60      0x128 libumouse.a(memmove.o)
                0xffc11e60                memmove
 P              0xffc11f88       0x6c libumouse.a(vsprintf.o)
                0xffc11f88                vsprintf
                0xffc11fc6                _vsprintf_r
 *fill*         0xffc11ff4        0x4 
 P              0xffc11ff8      0x100 libumouse.a(wf_sqrt.o)
                0xffc11ff8                sqrtf
                0xffc12077                sqrt
 P              0xffc120f8       0x80 libumouse.a(__atexit.o)
                0xffc120f8                __register_exitproc
 P              0xffc12178       0xc8 libumouse.a(ef_sqrt.o)
                0xffc12178                __ieee754_sqrtf
 P              0xffc12240        0x9 libumouse.a(errno.o)
                0xffc12240                __errno
 P              0xffc12249        0x0 libumouse.a(impure.o)
 P              0xffc12249        0x0 libumouse.a(s_lib_ver.o)
 P              0xffc12249        0x3 libumouse.a(s_matherr.o)
                0xffc12249                matherr
 P              0xffc1224c       0x31 libumouse.a(sf_fpclassify.o)
                0xffc1224c                __fpclassifyf
 *fill*         0xffc1227d        0x3 
 P              0xffc12280      0xd48 libumouse.a(svfprintf.o)
                0xffc12280                _svfprintf_r
 P              0xffc12fc8      0xcf0 libumouse.a(dtoa.o)
                0xffc130ed                _dtoa_r
 P              0xffc13cb8       0xc8 libumouse.a(locale.o)
                0xffc13cb8                _setlocale_r
                0xffc13d03                __locale_charset
                0xffc13d0a                __locale_mb_cur_max
                0xffc13d13                __locale_msgcharset
                0xffc13d1a                __locale_cjk_lang
                0xffc13d1d                _localeconv_r
                0xffc13d24                setlocale
                0xffc13d73                localeconv
 P              0xffc13d80      0xd80 libumouse.a(mallocr.o)
                0xffc13d80                _malloc_trim_r
                0xffc13e24                _free_r
                0xffc13fc9                _malloc_r
                0xffc1453b                _calloc_r
                0xffc145a6                _realloc_r
                0xffc148ee                _malloc_usable_size_r
                0xffc1491c                __malloc_update_mallinfo
                0xffc14975                _malloc_stats_r
                0xffc14a19                _mallinfo_r
                0xffc14a92                _mallopt_r
 P              0xffc14b00       0xb0 libumouse.a(memchr.o)
                0xffc14b00                memchr
 P              0xffc14bb0       0xf8 libumouse.a(memcpy.o)
                0xffc14bb0                memcpy
 P              0xffc14ca8       0xb8 libumouse.a(memset.o)
                0xffc14ca8                memset
 P              0xffc14d60        0x2 libumouse.a(mlock.o)
                0xffc14d60                __malloc_lock
                0xffc14d61                __malloc_unlock
 *fill*         0xffc14d62        0x6 
 P              0xffc14d68     0x1030 libumouse.a(mprec.o)
                0xffc14d68                _Balloc
                0xffc14dbe                _Bfree
                0xffc14dd0                __multadd
                0xffc14ea0                __s2b
                0xffc1514e                __hi0bits
                0xffc151a5                __lo0bits
                0xffc15218                __i2b
                0xffc1526c                __multiply
                0xffc153ef                __pow5mult
                0xffc15590                __lshift
                0xffc15688                __mcmp
                0xffc156be                __mdiff
                0xffc15898                __ulp
                0xffc158c0                __b2d
                0xffc15983                __d2b
                0xffc15b01                __ratio
                0xffc15ce7                _mprec_log10
                0xffc15d0c                __copybits
                0xffc15d50                __any_on
 P              0xffc15d98       0x28 libumouse.a(sbrkr.o)
                0xffc15d98                _sbrk_r
 P              0xffc15dc0       0x80 libumouse.a(strcmp.o)
                0xffc15dc0                strcmp
 P              0xffc15e40       0x70 libumouse.a(strlen.o)
                0xffc15e40                strlen
 P              0xffc15eb0      0xa20 libumouse.a(svfiprintf.o)
                0xffc15eb0                __ssputs_r
                0xffc15f82                __ssprint_r
                0xffc16091                _svfiprintf_r
 P              0xffc168d0       0x28 libumouse.a(fiprintf.o)
                0xffc168d0                _fiprintf_r
                0xffc168df                fiprintf
 P              0xffc168f8      0x140 libumouse.a(reent.o)
                0xffc168f8                cleanup_glue
                0xffc16997                _reclaim_reent
 P              0xffc16a38       0x18 libumouse.a(sbrk.o)
                0xffc16a38                sbrk
 P              0xffc16a50      0x7d0 libumouse.a(vfiprintf.o)
                0xffc16a50                __sfputs_r
                0xffc16a82                __sprint_r
                0xffc16aa1                _vfiprintf_r
                0xffc17209                vfiprintf
 P              0xffc17220       0xc8 libumouse.a(wsetup.o)
                0xffc17220                __swsetup_r
 P              0xffc172e8      0x328 libumouse.a(findfp.o)
                0xffc172ee                _cleanup_r
                0xffc172f8                __sfmoreglue
                0xffc17327                __sfp
                0xffc174cd                _cleanup
                0xffc174df                __sinit
                0xffc175e1                __sfp_lock_acquire
                0xffc175e2                __sfp_lock_release
                0xffc175e3                __sinit_lock_acquire
                0xffc175e4                __sinit_lock_release
                0xffc175e5                __fp_lock_all
                0xffc175f7                __fp_unlock_all
 P              0xffc17610       0x58 libumouse.a(fputc.o)
                0xffc17610                _fputc_r
                0xffc17636                fputc
 P              0xffc17668      0x320 libumouse.a(fvwrite.o)
                0xffc17668                __sfvwrite_r
 P              0xffc17988       0x98 libumouse.a(fwalk.o)
                0xffc17988                _fwalk
                0xffc179d2                _fwalk_reent
 P              0xffc17a20       0xc0 libumouse.a(makebuf.o)
                0xffc17a20                __smakebuf_r
 P              0xffc17ae0       0xd0 libumouse.a(putc.o)
                0xffc17ae0                _putc_r
                0xffc17b3e                putc
 P              0xffc17bb0       0x88 libumouse.a(stdio.o)
                0xffc17bb0                __sread
                0xffc17bd4                __seofread
                0xffc17bd7                __swrite
                0xffc17c0b                __sseek
                0xffc17c32                __sclose
 P              0xffc17c38      0x150 libumouse.a(wbuf.o)
                0xffc17c38                __swbuf_r
                0xffc17cdd                __swbuf
 P              0xffc17d88       0x30 libumouse.a(writer.o)
                0xffc17d88                _write_r
 P              0xffc17db8       0x28 libumouse.a(closer.o)
                0xffc17db8                _close_r
 P              0xffc17de0      0x120 libumouse.a(fclose.o)
                0xffc17de0                _fclose_r
                0xffc17e6b                fclose
 P              0xffc17f00      0x448 libumouse.a(fflush.o)
                0xffc17f00                _fflush_r
                0xffc1806c                __sflush_r
                0xffc181bb                fflush
 P              0xffc18348       0x28 libumouse.a(fstatr.o)
                0xffc18348                _fstat_r
 P              0xffc18370       0x28 libumouse.a(isattyr.o)
                0xffc18370                _isatty_r
 P              0xffc18398       0x30 libumouse.a(lseekr.o)
                0xffc18398                _lseek_r
 P              0xffc183c8       0x30 libumouse.a(readr.o)
                0xffc183c8                _read_r
 P              0xffc183f8        0x6 libumouse.a(write.o)
                0xffc183f8                write
                0xffc183f8                _write
 P              0xffc183fe        0x6 libumouse.a(close.o)
                0xffc183fe                close
                0xffc183fe                _close
 P              0xffc18404        0x6 libumouse.a(fstat.o)
                0xffc18404                _fstat
                0xffc18404                fstat
 P              0xffc1840a        0x3 libumouse.a(isatty.o)
                0xffc1840a                _isatty
                0xffc1840a                isatty
 P              0xffc1840d        0x6 libumouse.a(lseek.o)
                0xffc1840d                _lseek
                0xffc1840d                lseek
 P              0xffc18413        0x6 libumouse.a(read.o)
                0xffc18413                read
                0xffc18413                _read
 P              0xffc18419       0x22 C:\PROGRA~2\GCCFOR~2.201\rx-elf\rx-elf/lib/gcc/rx-elf/4.8.0.201602-GNURX\libgcc.a(_fixsfdi.o)
                0xffc18419                _COM_CONVf64s
                0xffc18419                __fixsfdi
 *fill*         0xffc1843b        0x5 
 P              0xffc18440       0xb8 C:\PROGRA~2\GCCFOR~2.201\rx-elf\rx-elf/lib/gcc/rx-elf/4.8.0.201602-GNURX\libgcc.a(_fixunssfdi.o)
                0xffc18440                _COM_CONVf64u
                0xffc18440                __fixunssfdi
 P              0xffc184f8       0xc8 C:\PROGRA~2\GCCFOR~2.201\rx-elf\rx-elf/lib/gcc/rx-elf/4.8.0.201602-GNURX\libgcc.a(_floatdisf.o)
                0xffc184f8                __floatdisf
                0xffc184f8                _COM_CONV64sf
 P              0xffc185c0      0x3b0 C:\PROGRA~2\GCCFOR~2.201\rx-elf\rx-elf/lib/gcc/rx-elf/4.8.0.201602-GNURX\libgcc.a(_umoddi3.o)
                0xffc185c0                __umoddi3
                0xffc185c0                _COM_MOD64u
 P              0xffc18970      0x270 C:\PROGRA~2\GCCFOR~2.201\rx-elf\rx-elf/lib/gcc/rx-elf/4.8.0.201602-GNURX\libgcc.a(unwind-sjlj.o)
                0xffc18a62                _Unwind_SjLj_Register
                0xffc18a6d                _Unwind_SjLj_Unregister
                0xffc18a76                _Unwind_GetGR
                0xffc18a7e                _Unwind_GetCFA
                0xffc18a86                _Unwind_SetGR
                0xffc18a8e                _Unwind_GetIP
                0xffc18a96                _Unwind_GetIPInfo
                0xffc18aa3                _Unwind_SetIP
                0xffc18aab                _Unwind_GetLanguageSpecificData
                0xffc18ab1                _Unwind_GetRegionStart
                0xffc18ab4                _Unwind_FindEnclosingFunction
                0xffc18ab7                _Unwind_GetDataRelBase
                0xffc18aba                _Unwind_GetTextRelBase
                0xffc18abd                _Unwind_SjLj_RaiseException
                0xffc18b2a                _Unwind_SjLj_ForcedUnwind
                0xffc18b47                _Unwind_SjLj_Resume
                0xffc18b6e                _Unwind_SjLj_Resume_or_Rethrow
                0xffc18b95                _Unwind_DeleteException
                0xffc18ba2                _Unwind_Backtrace
 P              0xffc18be0        0x0 C:\PROGRA~2\GCCFOR~2.201\rx-elf\rx-elf/lib/gcc/rx-elf/4.8.0.201602-GNURX\libgcc.a(_clz.o)
 P              0xffc18be0        0x0 C:\PROGRA~2\GCCFOR~2.201\rx-elf\rx-elf/rx-elf/lib\libstdc++.a(eh_throw.o)
 P              0xffc18be0        0x0 C:\PROGRA~2\GCCFOR~2.201\rx-elf\rx-elf/rx-elf/lib\libstdc++.a(guard.o)
 P              0xffc18be0        0x0 C:\PROGRA~2\GCCFOR~2.201\rx-elf\rx-elf/rx-elf/lib\libstdc++.a(del_op.o)
 P              0xffc18be0        0x0 C:\PROGRA~2\GCCFOR~2.201\rx-elf\rx-elf/rx-elf/lib\libstdc++.a(eh_personality.o)
 P              0xffc18be0        0x0 C:\PROGRA~2\GCCFOR~2.201\rx-elf\rx-elf/rx-elf/lib\libstdc++.a(eh_term_handler.o)
 P              0xffc18be0        0x0 C:\PROGRA~2\GCCFOR~2.201\rx-elf\rx-elf/rx-elf/lib\libstdc++.a(guard_error.o)
 P              0xffc18be0        0x0 C:\PROGRA~2\GCCFOR~2.201\rx-elf\rx-elf/rx-elf/lib\libstdc++.a(si_class_type_info.o)
 P              0xffc18be0        0x0 C:\PROGRA~2\GCCFOR~2.201\rx-elf\rx-elf/rx-elf/lib\libstdc++.a(vterminate.o)
 P              0xffc18be0        0x0 C:\PROGRA~2\GCCFOR~2.201\rx-elf\rx-elf/rx-elf/lib\libstdc++.a(eh_call.o)
 P              0xffc18be0        0x0 C:\PROGRA~2\GCCFOR~2.201\rx-elf\rx-elf/rx-elf/lib\libstdc++.a(eh_unex_handler.o)
 P              0xffc18be0        0x0 C:\PROGRA~2\GCCFOR~2.201\rx-elf\rx-elf/rx-elf/lib\libstdc++.a(eh_catch.o)
 P              0xffc18be0        0x0 C:\PROGRA~2\GCCFOR~2.201\rx-elf\rx-elf/rx-elf/lib\libstdc++.a(pure.o)
 P              0xffc18be0        0x0 C:\PROGRA~2\GCCFOR~2.201\rx-elf\rx-elf/rx-elf/lib\libstdc++.a(eh_exception.o)
 P              0xffc18be0     0x5260 C:\PROGRA~2\GCCFOR~2.201\rx-elf\rx-elf/rx-elf/lib\libstdc++.a(cp-demangle.o)
                0xffc1dd68                __cxa_demangle
                0xffc1de23                __gcclibcxx_demangle_callback
 P              0xffc1de40        0x0 C:\PROGRA~2\GCCFOR~2.201\rx-elf\rx-elf/rx-elf/lib\libstdc++.a(new_op.o)
 P              0xffc1de40        0x0 C:\PROGRA~2\GCCFOR~2.201\rx-elf\rx-elf/rx-elf/lib\libstdc++.a(eh_terminate.o)
 P              0xffc1de40        0x0 C:\PROGRA~2\GCCFOR~2.201\rx-elf\rx-elf/rx-elf/lib\libstdc++.a(eh_alloc.o)
 P              0xffc1de40        0x0 C:\PROGRA~2\GCCFOR~2.201\rx-elf\rx-elf/rx-elf/lib\libstdc++.a(class_type_info.o)
 P              0xffc1de40        0x0 C:\PROGRA~2\GCCFOR~2.201\rx-elf\rx-elf/rx-elf/lib\libstdc++.a(functexcept.o)
 P              0xffc1de40        0x0 C:\PROGRA~2\GCCFOR~2.201\rx-elf\rx-elf/rx-elf/lib\libstdc++.a(functional.o)
 P              0xffc1de40        0x0 C:\PROGRA~2\GCCFOR~2.201\rx-elf\rx-elf/rx-elf/lib\libstdc++.a(eh_globals.o)
 P              0xffc1de40        0x0 C:\PROGRA~2\GCCFOR~2.201\rx-elf\rx-elf/rx-elf/lib\libstdc++.a(bad_typeid.o)
 P              0xffc1de40        0x0 C:\PROGRA~2\GCCFOR~2.201\rx-elf\rx-elf/rx-elf/lib\libstdc++.a(bad_alloc.o)
 P              0xffc1de40        0x0 C:\PROGRA~2\GCCFOR~2.201\rx-elf\rx-elf/rx-elf/lib\libstdc++.a(eh_type.o)
 P              0xffc1de40        0x0 C:\PROGRA~2\GCCFOR~2.201\rx-elf\rx-elf/rx-elf/lib\libstdc++.a(bad_cast.o)
 P              0xffc1de40        0x0 C:\PROGRA~2\GCCFOR~2.201\rx-elf\rx-elf/rx-elf/lib\libstdc++.a(tinfo.o)
 P              0xffc1de40        0x0 C:\PROGRA~2\GCCFOR~2.201\rx-elf\rx-elf/rx-elf/lib\libstdc++.a(new_handler.o)
 P              0xffc1de40        0x0 C:\PROGRA~2\GCCFOR~2.201\rx-elf\rx-elf/rx-elf/lib\libstdc++.a(stdexcept.o)
 P              0xffc1de40        0x0 C:\PROGRA~2\GCCFOR~2.201\rx-elf\rx-elf/rx-elf/lib\libstdc++.a(ios_failure.o)
 P              0xffc1de40        0x0 C:\PROGRA~2\GCCFOR~2.201\rx-elf\rx-elf/rx-elf/lib\libstdc++.a(system_error.o)
 P              0xffc1de40        0x0 C:\PROGRA~2\GCCFOR~2.201\rx-elf\rx-elf/rx-elf/lib\libstdc++.a(future.o)
 P              0xffc1de40        0x0 C:\PROGRA~2\GCCFOR~2.201\rx-elf\rx-elf/rx-elf/lib\libstdc++.a(string-inst.o)
 P              0xffc1de40        0x0 C:\PROGRA~2\GCCFOR~2.201\rx-elf\rx-elf/rx-elf/lib\libstdc++.a(regex.o)
 P              0xffc1de40      0x170 C:\Users\ryota\e2_studio\workspace\umouse\HardwareDebug\libumouse.a(fputs.o)
                0xffc1de40                _fputs_r
                0xffc1def6                fputs
 P              0xffc1dfb0      0x180 C:\Users\ryota\e2_studio\workspace\umouse\HardwareDebug\libumouse.a(fwrite.o)
                0xffc1dfb0                _fwrite_r
                0xffc1e06b                fwrite
 P              0xffc1e130       0x1c C:\Users\ryota\e2_studio\workspace\umouse\HardwareDebug\libumouse.a(malloc.o)
                0xffc1e130                malloc
                0xffc1e13e                free
 *fill*         0xffc1e14c        0x4 
 P              0xffc1e150       0x60 C:\Users\ryota\e2_studio\workspace\umouse\HardwareDebug\libumouse.a(memcmp.o)
                0xffc1e150                memcmp
 P              0xffc1e1b0       0x12 C:\Users\ryota\e2_studio\workspace\umouse\HardwareDebug\libumouse.a(realloc.o)
                0xffc1e1b0                realloc
 P              0xffc1e1c2       0x74 C:\Users\ryota\e2_studio\workspace\umouse\HardwareDebug\libumouse.a(sprintf.o)
                0xffc1e1c2                _sprintf_r
                0xffc1e1f8                sprintf
 P              0xffc1e236      0x4b9 C:\Users\ryota\e2_studio\workspace\umouse\HardwareDebug\libumouse.a(strerror.o)
                0xffc1e236                _strerror_r
                0xffc1e494                strerror
 P              0xffc1e6ef        0x3 C:\Users\ryota\e2_studio\workspace\umouse\HardwareDebug\libumouse.a(u_strerr.o)
                0xffc1e6ef                _user_strerror
                0xffc1e6f2                etext = .

.rvectors       0xffc1e6f4      0x400
                0xffc1e6f4                _rvectors_start = .
 *(.rvectors)
 .rvectors      0xffc1e6f4      0x400 ./src/other/vector_table.o
                0xffc1e6f4                RelocatableVectors
                0xffc1eaf4                _rvectors_end = .

.init           0xffc1eaf4       0x20
 *(.init)
 .init          0xffc1eaf4       0x14 ./src/other/reset_program.o
                0xffc1eaf4                _rx_init
                0xffc1eb05                _rx_init_end
                0xffc1eb08                __preinit_array_start = .
 *(.preinit_array)
                0xffc1eb08                __preinit_array_end = .
                0xffc1eb08                __init_array_start = ((. + 0x3) & 0xfffffffc)
 *(.init_array)
 .init_array    0xffc1eb08        0x4 ./src/peripheral/uart.o
 .init_array    0xffc1eb0c        0x4 ./src/umouse_object/sound.o
 .init_array    0xffc1eb10        0x4 C:\PROGRA~2\GCCFOR~2.201\rx-elf\rx-elf/rx-elf/lib\libstdc++.a(system_error.o)
 *(SORT(.init_array.*))
                0xffc1eb14                __init_array_end = .
                0xffc1eb14                __fini_array_start = .
 *(.fini_array)
 *(SORT(.fini_array.*))
                0xffc1eb14                __fini_array_end = .

.fini           0xffc1eb14       0x10
 *(.fini)
 .fini          0xffc1eb14       0x10 ./src/other/reset_program.o
                0xffc1eb14                _rx_fini
                0xffc1eb1d                _rx_fini_end

.got
 *(.got)
 *(.got.plt)

.rodata         0xffc1eb24    0x17b48
 *(.rodata)
 *(.rodata.*)
 .rodata.str1.1
                0xffc1eb24      0x145 ./src/main.o
 .rodata.str1.1
                0xffc1ec69      0x215 ./src/mode/mode.o
 .rodata.str1.1
                0xffc1ee7e       0x43 ./src/mode/mode_B.o
                                 0x66 (size before relaxing)
 *fill*         0xffc1eec1        0x3 
 .rodata._ZTI13BaseMoveEvent
                0xffc1eec4        0x8 ./src/mode/mode_B.o
                0xffc1eec4                typeinfo for BaseMoveEvent
 .rodata._ZTS13BaseMoveEvent
                0xffc1eecc       0x10 ./src/mode/mode_B.o
                0xffc1eecc                typeinfo name for BaseMoveEvent
 .rodata._ZTI11SimpleTrape
                0xffc1eedc        0xc ./src/mode/mode_B.o
                0xffc1eedc                typeinfo for SimpleTrape
 .rodata._ZTS11SimpleTrape
                0xffc1eee8        0xe ./src/mode/mode_B.o
                0xffc1eee8                typeinfo name for SimpleTrape
 *fill*         0xffc1eef6        0x2 
 .rodata._ZTI4Stop
                0xffc1eef8        0xc ./src/mode/mode_B.o
                0xffc1eef8                typeinfo for Stop
 .rodata._ZTS4Stop
                0xffc1ef04        0x6 ./src/mode/mode_B.o
                0xffc1ef04                typeinfo name for Stop
 *fill*         0xffc1ef0a        0x2 
 .rodata._ZTV13BaseMoveEvent
                0xffc1ef0c       0x10 ./src/mode/mode_B.o
                0xffc1ef0c                vtable for BaseMoveEvent
 .rodata._ZTV11SimpleTrape
                0xffc1ef1c       0x10 ./src/mode/mode_B.o
                0xffc1ef1c                vtable for SimpleTrape
 .rodata._ZTV4Stop
                0xffc1ef2c       0x10 ./src/mode/mode_B.o
                0xffc1ef2c                vtable for Stop
 .rodata.str1.1
                0x00000000       0x43 ./src/mode/mode_G.o
                                  0x8 (size before relaxing)
 .rodata.str1.1
                0xffc1ef3c       0x11 ./src/mode/mode_GB.o
                                 0x24 (size before relaxing)
 .rodata.str1.1
                0xffc1ef4d       0x9c ./src/mode/mode_N.o
                                 0xa6 (size before relaxing)
 .rodata.str1.1
                0xffc1efe9        0x8 ./src/mode/mode_R.o
 .rodata.str1.1
                0xffc1eff1        0x9 ./src/mode/mode_RB.o
 .rodata.str1.1
                0xffc1effa        0x9 ./src/mode/mode_RG.o
 .rodata.str1.1
                0xffc1f003       0x1e ./src/mode/mode_RGB.o
                                 0x28 (size before relaxing)
 .rodata.str1.1
                0xffc1f021       0x27 ./src/peripheral/uart.o
 .rodata._ZTI11AbstructLED
                0xffc1f048        0x8 ./src/robot_object/fcled.o
                0xffc1f048                typeinfo for AbstructLED
 .rodata._ZTS11AbstructLED
                0xffc1f050        0xe ./src/robot_object/fcled.o
                0xffc1f050                typeinfo name for AbstructLED
 .rodata._ZTS5LED_R
                0xffc1f05e        0x7 ./src/robot_object/fcled.o
                0xffc1f05e                typeinfo name for LED_R
 *fill*         0xffc1f065        0x3 
 .rodata._ZTI5LED_R
                0xffc1f068        0xc ./src/robot_object/fcled.o
                0xffc1f068                typeinfo for LED_R
 .rodata._ZTS5LED_G
                0xffc1f074        0x7 ./src/robot_object/fcled.o
                0xffc1f074                typeinfo name for LED_G
 *fill*         0xffc1f07b        0x1 
 .rodata._ZTI5LED_G
                0xffc1f07c        0xc ./src/robot_object/fcled.o
                0xffc1f07c                typeinfo for LED_G
 .rodata._ZTS5LED_B
                0xffc1f088        0x7 ./src/robot_object/fcled.o
                0xffc1f088                typeinfo name for LED_B
 *fill*         0xffc1f08f        0x1 
 .rodata._ZTI5LED_B
                0xffc1f090        0xc ./src/robot_object/fcled.o
                0xffc1f090                typeinfo for LED_B
 .rodata._ZTV5LED_R
                0xffc1f09c        0xc ./src/robot_object/fcled.o
                0xffc1f09c                vtable for LED_R
 .rodata._ZTV5LED_G
                0xffc1f0a8        0xc ./src/robot_object/fcled.o
                0xffc1f0a8                vtable for LED_G
 .rodata._ZTV5LED_B
                0xffc1f0b4        0xc ./src/robot_object/fcled.o
                0xffc1f0b4                vtable for LED_B
 .rodata.str1.1
                0xffc1f0c0       0x77 ./src/umouse_object/imu.o
                                 0xa1 (size before relaxing)
 .rodata.str1.1
                0xffc1f137        0x8 ./src/umouse_object/sound.o
 .rodata.str1.1
                0xffc1f13f        0x6 libumouse.a(wf_sqrt.o)
 .rodata.str1.1
                0xffc1f145        0x2 libumouse.a(impure.o)
 .rodata.str1.1
                0xffc1f147       0x3b libumouse.a(svfprintf.o)
 .rodata.str1.1
                0xffc1f182        0xd libumouse.a(dtoa.o)
                                  0xf (size before relaxing)
 .rodata.str1.1
                0xffc1f18f        0x6 libumouse.a(locale.o)
                                  0xb (size before relaxing)
 .rodata.str1.1
                0xffc1f195       0x4b libumouse.a(mallocr.o)
 .rodata.str1.1
                0x00000000       0x29 libumouse.a(svfiprintf.o)
 .rodata.str1.1
                0x00000000       0x29 libumouse.a(vfiprintf.o)
 .rodata._ZL28read_encoded_value_with_basehjPKhPj
                0xffc1f1e0       0x34 C:\PROGRA~2\GCCFOR~2.201\rx-elf\rx-elf/rx-elf/lib\libstdc++.a(eh_personality.o)
 .rodata._ZTSN9__gnu_cxx20recursive_init_errorE
                0xffc1f214       0x23 C:\PROGRA~2\GCCFOR~2.201\rx-elf\rx-elf/rx-elf/lib\libstdc++.a(guard_error.o)
                0xffc1f214                typeinfo name for __gnu_cxx::recursive_init_error
 *fill*         0xffc1f237        0x1 
 .rodata._ZTIN9__gnu_cxx20recursive_init_errorE
                0xffc1f238        0xc C:\PROGRA~2\GCCFOR~2.201\rx-elf\rx-elf/rx-elf/lib\libstdc++.a(guard_error.o)
                0xffc1f238                typeinfo for __gnu_cxx::recursive_init_error
 .rodata._ZTVN9__gnu_cxx20recursive_init_errorE
                0xffc1f244       0x14 C:\PROGRA~2\GCCFOR~2.201\rx-elf\rx-elf/rx-elf/lib\libstdc++.a(guard_error.o)
                0xffc1f244                vtable for __gnu_cxx::recursive_init_error
 .rodata._ZTSN10__cxxabiv120__si_class_type_infoE
                0xffc1f258       0x25 C:\PROGRA~2\GCCFOR~2.201\rx-elf\rx-elf/rx-elf/lib\libstdc++.a(si_class_type_info.o)
                0xffc1f258                typeinfo name for __cxxabiv1::__si_class_type_info
 *fill*         0xffc1f27d        0x3 
 .rodata._ZTIN10__cxxabiv120__si_class_type_infoE
                0xffc1f280        0xc C:\PROGRA~2\GCCFOR~2.201\rx-elf\rx-elf/rx-elf/lib\libstdc++.a(si_class_type_info.o)
                0xffc1f280                typeinfo for __cxxabiv1::__si_class_type_info
 .rodata._ZTVN10__cxxabiv120__si_class_type_infoE
                0xffc1f28c       0x2c C:\PROGRA~2\GCCFOR~2.201\rx-elf\rx-elf/rx-elf/lib\libstdc++.a(si_class_type_info.o)
                0xffc1f28c                vtable for __cxxabiv1::__si_class_type_info
 .rodata.str1.1
                0xffc1f2b8       0x8c C:\PROGRA~2\GCCFOR~2.201\rx-elf\rx-elf/rx-elf/lib\libstdc++.a(vterminate.o)
 .rodata.str1.1
                0xffc1f344       0x3b C:\PROGRA~2\GCCFOR~2.201\rx-elf\rx-elf/rx-elf/lib\libstdc++.a(pure.o)
 .rodata.str1.1
                0xffc1f37f       0x22 C:\PROGRA~2\GCCFOR~2.201\rx-elf\rx-elf/rx-elf/lib\libstdc++.a(eh_exception.o)
 .rodata._ZTSSt9exception
                0xffc1f3a1        0xd C:\PROGRA~2\GCCFOR~2.201\rx-elf\rx-elf/rx-elf/lib\libstdc++.a(eh_exception.o)
                0xffc1f3a1                typeinfo name for std::exception
 *fill*         0xffc1f3ae        0x2 
 .rodata._ZTISt9exception
                0xffc1f3b0        0x8 C:\PROGRA~2\GCCFOR~2.201\rx-elf\rx-elf/rx-elf/lib\libstdc++.a(eh_exception.o)
                0xffc1f3b0                typeinfo for std::exception
 .rodata._ZTSSt13bad_exception
                0xffc1f3b8       0x12 C:\PROGRA~2\GCCFOR~2.201\rx-elf\rx-elf/rx-elf/lib\libstdc++.a(eh_exception.o)
                0xffc1f3b8                typeinfo name for std::bad_exception
 *fill*         0xffc1f3ca        0x2 
 .rodata._ZTISt13bad_exception
                0xffc1f3cc        0xc C:\PROGRA~2\GCCFOR~2.201\rx-elf\rx-elf/rx-elf/lib\libstdc++.a(eh_exception.o)
                0xffc1f3cc                typeinfo for std::bad_exception
 .rodata._ZTSN10__cxxabiv115__forced_unwindE
                0xffc1f3d8       0x20 C:\PROGRA~2\GCCFOR~2.201\rx-elf\rx-elf/rx-elf/lib\libstdc++.a(eh_exception.o)
                0xffc1f3d8                typeinfo name for __cxxabiv1::__forced_unwind
 .rodata._ZTIN10__cxxabiv115__forced_unwindE
                0xffc1f3f8        0x8 C:\PROGRA~2\GCCFOR~2.201\rx-elf\rx-elf/rx-elf/lib\libstdc++.a(eh_exception.o)
                0xffc1f3f8                typeinfo for __cxxabiv1::__forced_unwind
 .rodata._ZTSN10__cxxabiv119__foreign_exceptionE
                0xffc1f400       0x24 C:\PROGRA~2\GCCFOR~2.201\rx-elf\rx-elf/rx-elf/lib\libstdc++.a(eh_exception.o)
                0xffc1f400                typeinfo name for __cxxabiv1::__foreign_exception
 .rodata._ZTIN10__cxxabiv119__foreign_exceptionE
                0xffc1f424        0x8 C:\PROGRA~2\GCCFOR~2.201\rx-elf\rx-elf/rx-elf/lib\libstdc++.a(eh_exception.o)
                0xffc1f424                typeinfo for __cxxabiv1::__foreign_exception
 .rodata._ZTVSt9exception
                0xffc1f42c       0x14 C:\PROGRA~2\GCCFOR~2.201\rx-elf\rx-elf/rx-elf/lib\libstdc++.a(eh_exception.o)
                0xffc1f42c                vtable for std::exception
 .rodata._ZTVSt13bad_exception
                0xffc1f440       0x14 C:\PROGRA~2\GCCFOR~2.201\rx-elf\rx-elf/rx-elf/lib\libstdc++.a(eh_exception.o)
                0xffc1f440                vtable for std::bad_exception
 .rodata._ZTVN10__cxxabiv115__forced_unwindE
                0xffc1f454       0x14 C:\PROGRA~2\GCCFOR~2.201\rx-elf\rx-elf/rx-elf/lib\libstdc++.a(eh_exception.o)
                0xffc1f454                vtable for __cxxabiv1::__forced_unwind
 .rodata._ZTVN10__cxxabiv119__foreign_exceptionE
                0xffc1f468       0x14 C:\PROGRA~2\GCCFOR~2.201\rx-elf\rx-elf/rx-elf/lib\libstdc++.a(eh_exception.o)
                0xffc1f468                vtable for __cxxabiv1::__foreign_exception
 .rodata.str1.1
                0xffc1f47c      0x634 C:\PROGRA~2\GCCFOR~2.201\rx-elf\rx-elf/rx-elf/lib\libstdc++.a(cp-demangle.o)
                                0x708 (size before relaxing)
 .rodata._ZTSN10__cxxabiv117__class_type_infoE
                0xffc1fab0       0x22 C:\PROGRA~2\GCCFOR~2.201\rx-elf\rx-elf/rx-elf/lib\libstdc++.a(class_type_info.o)
                0xffc1fab0                typeinfo name for __cxxabiv1::__class_type_info
 *fill*         0xffc1fad2        0x2 
 .rodata._ZTIN10__cxxabiv117__class_type_infoE
                0xffc1fad4        0xc C:\PROGRA~2\GCCFOR~2.201\rx-elf\rx-elf/rx-elf/lib\libstdc++.a(class_type_info.o)
                0xffc1fad4                typeinfo for __cxxabiv1::__class_type_info
 .rodata._ZTVN10__cxxabiv117__class_type_infoE
                0xffc1fae0       0x2c C:\PROGRA~2\GCCFOR~2.201\rx-elf\rx-elf/rx-elf/lib\libstdc++.a(class_type_info.o)
                0xffc1fae0                vtable for __cxxabiv1::__class_type_info
 .rodata.str1.1
                0xffc1fb0c       0x12 C:\PROGRA~2\GCCFOR~2.201\rx-elf\rx-elf/rx-elf/lib\libstdc++.a(functexcept.o)
 .rodata.str1.1
                0xffc1fb1e       0x12 C:\PROGRA~2\GCCFOR~2.201\rx-elf\rx-elf/rx-elf/lib\libstdc++.a(functional.o)
 .rodata._ZTSSt17bad_function_call
                0xffc1fb30       0x16 C:\PROGRA~2\GCCFOR~2.201\rx-elf\rx-elf/rx-elf/lib\libstdc++.a(functional.o)
                0xffc1fb30                typeinfo name for std::bad_function_call
 *fill*         0xffc1fb46        0x2 
 .rodata._ZTISt17bad_function_call
                0xffc1fb48        0xc C:\PROGRA~2\GCCFOR~2.201\rx-elf\rx-elf/rx-elf/lib\libstdc++.a(functional.o)
                0xffc1fb48                typeinfo for std::bad_function_call
 .rodata._ZTVSt17bad_function_call
                0xffc1fb54       0x14 C:\PROGRA~2\GCCFOR~2.201\rx-elf\rx-elf/rx-elf/lib\libstdc++.a(functional.o)
                0xffc1fb54                vtable for std::bad_function_call
 .rodata.str1.1
                0xffc1fb68       0x10 C:\PROGRA~2\GCCFOR~2.201\rx-elf\rx-elf/rx-elf/lib\libstdc++.a(bad_typeid.o)
 .rodata._ZTSSt10bad_typeid
                0xffc1fb78        0xf C:\PROGRA~2\GCCFOR~2.201\rx-elf\rx-elf/rx-elf/lib\libstdc++.a(bad_typeid.o)
                0xffc1fb78                typeinfo name for std::bad_typeid
 *fill*         0xffc1fb87        0x1 
 .rodata._ZTISt10bad_typeid
                0xffc1fb88        0xc C:\PROGRA~2\GCCFOR~2.201\rx-elf\rx-elf/rx-elf/lib\libstdc++.a(bad_typeid.o)
                0xffc1fb88                typeinfo for std::bad_typeid
 .rodata._ZTVSt10bad_typeid
                0xffc1fb94       0x14 C:\PROGRA~2\GCCFOR~2.201\rx-elf\rx-elf/rx-elf/lib\libstdc++.a(bad_typeid.o)
                0xffc1fb94                vtable for std::bad_typeid
 .rodata.str1.1
                0xffc1fba8        0xf C:\PROGRA~2\GCCFOR~2.201\rx-elf\rx-elf/rx-elf/lib\libstdc++.a(bad_alloc.o)
 .rodata._ZTSSt9bad_alloc
                0xffc1fbb7        0xd C:\PROGRA~2\GCCFOR~2.201\rx-elf\rx-elf/rx-elf/lib\libstdc++.a(bad_alloc.o)
                0xffc1fbb7                typeinfo name for std::bad_alloc
 .rodata._ZTISt9bad_alloc
                0xffc1fbc4        0xc C:\PROGRA~2\GCCFOR~2.201\rx-elf\rx-elf/rx-elf/lib\libstdc++.a(bad_alloc.o)
                0xffc1fbc4                typeinfo for std::bad_alloc
 .rodata._ZTVSt9bad_alloc
                0xffc1fbd0       0x14 C:\PROGRA~2\GCCFOR~2.201\rx-elf\rx-elf/rx-elf/lib\libstdc++.a(bad_alloc.o)
                0xffc1fbd0                vtable for std::bad_alloc
 .rodata.str1.1
                0xffc1fbe4        0xe C:\PROGRA~2\GCCFOR~2.201\rx-elf\rx-elf/rx-elf/lib\libstdc++.a(bad_cast.o)
 .rodata._ZTSSt8bad_cast
                0xffc1fbf2        0xc C:\PROGRA~2\GCCFOR~2.201\rx-elf\rx-elf/rx-elf/lib\libstdc++.a(bad_cast.o)
                0xffc1fbf2                typeinfo name for std::bad_cast
 *fill*         0xffc1fbfe        0x2 
 .rodata._ZTISt8bad_cast
                0xffc1fc00        0xc C:\PROGRA~2\GCCFOR~2.201\rx-elf\rx-elf/rx-elf/lib\libstdc++.a(bad_cast.o)
                0xffc1fc00                typeinfo for std::bad_cast
 .rodata._ZTVSt8bad_cast
                0xffc1fc0c       0x14 C:\PROGRA~2\GCCFOR~2.201\rx-elf\rx-elf/rx-elf/lib\libstdc++.a(bad_cast.o)
                0xffc1fc0c                vtable for std::bad_cast
 .rodata._ZTSSt9type_info
                0xffc1fc20        0xd C:\PROGRA~2\GCCFOR~2.201\rx-elf\rx-elf/rx-elf/lib\libstdc++.a(tinfo.o)
                0xffc1fc20                typeinfo name for std::type_info
 *fill*         0xffc1fc2d        0x3 
 .rodata._ZTISt9type_info
                0xffc1fc30        0x8 C:\PROGRA~2\GCCFOR~2.201\rx-elf\rx-elf/rx-elf/lib\libstdc++.a(tinfo.o)
                0xffc1fc30                typeinfo for std::type_info
 .rodata._ZTVSt9type_info
                0xffc1fc38       0x20 C:\PROGRA~2\GCCFOR~2.201\rx-elf\rx-elf/rx-elf/lib\libstdc++.a(tinfo.o)
                0xffc1fc38                vtable for std::type_info
 .rodata._ZSt7nothrow
                0xffc1fc58        0x1 C:\PROGRA~2\GCCFOR~2.201\rx-elf\rx-elf/rx-elf/lib\libstdc++.a(new_handler.o)
                0xffc1fc58                std::nothrow
 .rodata._ZTSSt11logic_error
                0xffc1fc59       0x10 C:\PROGRA~2\GCCFOR~2.201\rx-elf\rx-elf/rx-elf/lib\libstdc++.a(stdexcept.o)
                0xffc1fc59                typeinfo name for std::logic_error
 *fill*         0xffc1fc69        0x3 
 .rodata._ZTISt11logic_error
                0xffc1fc6c        0xc C:\PROGRA~2\GCCFOR~2.201\rx-elf\rx-elf/rx-elf/lib\libstdc++.a(stdexcept.o)
                0xffc1fc6c                typeinfo for std::logic_error
 .rodata._ZTSSt12domain_error
                0xffc1fc78       0x11 C:\PROGRA~2\GCCFOR~2.201\rx-elf\rx-elf/rx-elf/lib\libstdc++.a(stdexcept.o)
                0xffc1fc78                typeinfo name for std::domain_error
 *fill*         0xffc1fc89        0x3 
 .rodata._ZTISt12domain_error
                0xffc1fc8c        0xc C:\PROGRA~2\GCCFOR~2.201\rx-elf\rx-elf/rx-elf/lib\libstdc++.a(stdexcept.o)
                0xffc1fc8c                typeinfo for std::domain_error
 .rodata._ZTSSt16invalid_argument
                0xffc1fc98       0x15 C:\PROGRA~2\GCCFOR~2.201\rx-elf\rx-elf/rx-elf/lib\libstdc++.a(stdexcept.o)
                0xffc1fc98                typeinfo name for std::invalid_argument
 *fill*         0xffc1fcad        0x3 
 .rodata._ZTISt16invalid_argument
                0xffc1fcb0        0xc C:\PROGRA~2\GCCFOR~2.201\rx-elf\rx-elf/rx-elf/lib\libstdc++.a(stdexcept.o)
                0xffc1fcb0                typeinfo for std::invalid_argument
 .rodata._ZTSSt12length_error
                0xffc1fcbc       0x11 C:\PROGRA~2\GCCFOR~2.201\rx-elf\rx-elf/rx-elf/lib\libstdc++.a(stdexcept.o)
                0xffc1fcbc                typeinfo name for std::length_error
 *fill*         0xffc1fccd        0x3 
 .rodata._ZTISt12length_error
                0xffc1fcd0        0xc C:\PROGRA~2\GCCFOR~2.201\rx-elf\rx-elf/rx-elf/lib\libstdc++.a(stdexcept.o)
                0xffc1fcd0                typeinfo for std::length_error
 .rodata._ZTSSt12out_of_range
                0xffc1fcdc       0x11 C:\PROGRA~2\GCCFOR~2.201\rx-elf\rx-elf/rx-elf/lib\libstdc++.a(stdexcept.o)
                0xffc1fcdc                typeinfo name for std::out_of_range
 *fill*         0xffc1fced        0x3 
 .rodata._ZTISt12out_of_range
                0xffc1fcf0        0xc C:\PROGRA~2\GCCFOR~2.201\rx-elf\rx-elf/rx-elf/lib\libstdc++.a(stdexcept.o)
                0xffc1fcf0                typeinfo for std::out_of_range
 .rodata._ZTSSt13runtime_error
                0xffc1fcfc       0x12 C:\PROGRA~2\GCCFOR~2.201\rx-elf\rx-elf/rx-elf/lib\libstdc++.a(stdexcept.o)
                0xffc1fcfc                typeinfo name for std::runtime_error
 *fill*         0xffc1fd0e        0x2 
 .rodata._ZTISt13runtime_error
                0xffc1fd10        0xc C:\PROGRA~2\GCCFOR~2.201\rx-elf\rx-elf/rx-elf/lib\libstdc++.a(stdexcept.o)
                0xffc1fd10                typeinfo for std::runtime_error
 .rodata._ZTSSt11range_error
                0xffc1fd1c       0x10 C:\PROGRA~2\GCCFOR~2.201\rx-elf\rx-elf/rx-elf/lib\libstdc++.a(stdexcept.o)
                0xffc1fd1c                typeinfo name for std::range_error
 .rodata._ZTISt11range_error
                0xffc1fd2c        0xc C:\PROGRA~2\GCCFOR~2.201\rx-elf\rx-elf/rx-elf/lib\libstdc++.a(stdexcept.o)
                0xffc1fd2c                typeinfo for std::range_error
 .rodata._ZTSSt14overflow_error
                0xffc1fd38       0x13 C:\PROGRA~2\GCCFOR~2.201\rx-elf\rx-elf/rx-elf/lib\libstdc++.a(stdexcept.o)
                0xffc1fd38                typeinfo name for std::overflow_error
 *fill*         0xffc1fd4b        0x1 
 .rodata._ZTISt14overflow_error
                0xffc1fd4c        0xc C:\PROGRA~2\GCCFOR~2.201\rx-elf\rx-elf/rx-elf/lib\libstdc++.a(stdexcept.o)
                0xffc1fd4c                typeinfo for std::overflow_error
 .rodata._ZTSSt15underflow_error
                0xffc1fd58       0x14 C:\PROGRA~2\GCCFOR~2.201\rx-elf\rx-elf/rx-elf/lib\libstdc++.a(stdexcept.o)
                0xffc1fd58                typeinfo name for std::underflow_error
 .rodata._ZTISt15underflow_error
                0xffc1fd6c        0xc C:\PROGRA~2\GCCFOR~2.201\rx-elf\rx-elf/rx-elf/lib\libstdc++.a(stdexcept.o)
                0xffc1fd6c                typeinfo for std::underflow_error
 .rodata._ZTVSt11logic_error
                0xffc1fd78       0x14 C:\PROGRA~2\GCCFOR~2.201\rx-elf\rx-elf/rx-elf/lib\libstdc++.a(stdexcept.o)
                0xffc1fd78                vtable for std::logic_error
 .rodata._ZTVSt12domain_error
                0xffc1fd8c       0x14 C:\PROGRA~2\GCCFOR~2.201\rx-elf\rx-elf/rx-elf/lib\libstdc++.a(stdexcept.o)
                0xffc1fd8c                vtable for std::domain_error
 .rodata._ZTVSt16invalid_argument
                0xffc1fda0       0x14 C:\PROGRA~2\GCCFOR~2.201\rx-elf\rx-elf/rx-elf/lib\libstdc++.a(stdexcept.o)
                0xffc1fda0                vtable for std::invalid_argument
 .rodata._ZTVSt12length_error
                0xffc1fdb4       0x14 C:\PROGRA~2\GCCFOR~2.201\rx-elf\rx-elf/rx-elf/lib\libstdc++.a(stdexcept.o)
                0xffc1fdb4                vtable for std::length_error
 .rodata._ZTVSt12out_of_range
                0xffc1fdc8       0x14 C:\PROGRA~2\GCCFOR~2.201\rx-elf\rx-elf/rx-elf/lib\libstdc++.a(stdexcept.o)
                0xffc1fdc8                vtable for std::out_of_range
 .rodata._ZTVSt13runtime_error
                0xffc1fddc       0x14 C:\PROGRA~2\GCCFOR~2.201\rx-elf\rx-elf/rx-elf/lib\libstdc++.a(stdexcept.o)
                0xffc1fddc                vtable for std::runtime_error
 .rodata._ZTVSt11range_error
                0xffc1fdf0       0x14 C:\PROGRA~2\GCCFOR~2.201\rx-elf\rx-elf/rx-elf/lib\libstdc++.a(stdexcept.o)
                0xffc1fdf0                vtable for std::range_error
 .rodata._ZTVSt14overflow_error
                0xffc1fe04       0x14 C:\PROGRA~2\GCCFOR~2.201\rx-elf\rx-elf/rx-elf/lib\libstdc++.a(stdexcept.o)
                0xffc1fe04                vtable for std::overflow_error
 .rodata._ZTVSt15underflow_error
                0xffc1fe18       0x14 C:\PROGRA~2\GCCFOR~2.201\rx-elf\rx-elf/rx-elf/lib\libstdc++.a(stdexcept.o)
                0xffc1fe18                vtable for std::underflow_error
 .rodata._ZTSNSt8ios_base7failureE
                0xffc1fe2c       0x16 C:\PROGRA~2\GCCFOR~2.201\rx-elf\rx-elf/rx-elf/lib\libstdc++.a(ios_failure.o)
                0xffc1fe2c                typeinfo name for std::ios_base::failure
 *fill*         0xffc1fe42        0x2 
 .rodata._ZTINSt8ios_base7failureE
                0xffc1fe44        0xc C:\PROGRA~2\GCCFOR~2.201\rx-elf\rx-elf/rx-elf/lib\libstdc++.a(ios_failure.o)
                0xffc1fe44                typeinfo for std::ios_base::failure
 .rodata._ZTVNSt8ios_base7failureE
                0xffc1fe50       0x14 C:\PROGRA~2\GCCFOR~2.201\rx-elf\rx-elf/rx-elf/lib\libstdc++.a(ios_failure.o)
                0xffc1fe50                vtable for std::ios_base::failure
 .rodata.str1.1
                0xffc1fe64        0x8 C:\PROGRA~2\GCCFOR~2.201\rx-elf\rx-elf/rx-elf/lib\libstdc++.a(system_error.o)
                                  0xf (size before relaxing)
 .rodata._ZTSN12_GLOBAL__N_122generic_error_categoryE
                0xffc1fe6c       0x2a C:\PROGRA~2\GCCFOR~2.201\rx-elf\rx-elf/rx-elf/lib\libstdc++.a(system_error.o)
 .rodata._ZTSN12_GLOBAL__N_121system_error_categoryE
                0xffc1fe96       0x29 C:\PROGRA~2\GCCFOR~2.201\rx-elf\rx-elf/rx-elf/lib\libstdc++.a(system_error.o)
 *fill*         0xffc1febf        0x1 
 .rodata._ZTIN12_GLOBAL__N_121system_error_categoryE
                0xffc1fec0        0xc C:\PROGRA~2\GCCFOR~2.201\rx-elf\rx-elf/rx-elf/lib\libstdc++.a(system_error.o)
 .rodata._ZTIN12_GLOBAL__N_122generic_error_categoryE
                0xffc1fecc        0xc C:\PROGRA~2\GCCFOR~2.201\rx-elf\rx-elf/rx-elf/lib\libstdc++.a(system_error.o)
 .rodata._ZTSSt14error_category
                0xffc1fed8       0x13 C:\PROGRA~2\GCCFOR~2.201\rx-elf\rx-elf/rx-elf/lib\libstdc++.a(system_error.o)
                0xffc1fed8                typeinfo name for std::error_category
 *fill*         0xffc1feeb        0x1 
 .rodata._ZTISt14error_category
                0xffc1feec        0x8 C:\PROGRA~2\GCCFOR~2.201\rx-elf\rx-elf/rx-elf/lib\libstdc++.a(system_error.o)
                0xffc1feec                typeinfo for std::error_category
 .rodata._ZTSSt12system_error
                0xffc1fef4       0x11 C:\PROGRA~2\GCCFOR~2.201\rx-elf\rx-elf/rx-elf/lib\libstdc++.a(system_error.o)
                0xffc1fef4                typeinfo name for std::system_error
 *fill*         0xffc1ff05        0x3 
 .rodata._ZTISt12system_error
                0xffc1ff08        0xc C:\PROGRA~2\GCCFOR~2.201\rx-elf\rx-elf/rx-elf/lib\libstdc++.a(system_error.o)
                0xffc1ff08                typeinfo for std::system_error
 .rodata._ZTVN12_GLOBAL__N_122generic_error_categoryE
                0xffc1ff14       0x24 C:\PROGRA~2\GCCFOR~2.201\rx-elf\rx-elf/rx-elf/lib\libstdc++.a(system_error.o)
 .rodata._ZTVN12_GLOBAL__N_121system_error_categoryE
                0xffc1ff38       0x24 C:\PROGRA~2\GCCFOR~2.201\rx-elf\rx-elf/rx-elf/lib\libstdc++.a(system_error.o)
 .rodata._ZTVSt14error_category
                0xffc1ff5c       0x24 C:\PROGRA~2\GCCFOR~2.201\rx-elf\rx-elf/rx-elf/lib\libstdc++.a(system_error.o)
                0xffc1ff5c                vtable for std::error_category
 .rodata._ZTVSt12system_error
                0xffc1ff80       0x14 C:\PROGRA~2\GCCFOR~2.201\rx-elf\rx-elf/rx-elf/lib\libstdc++.a(system_error.o)
                0xffc1ff80                vtable for std::system_error
 .rodata.str1.1
                0xffc1ff94       0x6b C:\PROGRA~2\GCCFOR~2.201\rx-elf\rx-elf/rx-elf/lib\libstdc++.a(future.o)
 .rodata._ZTSN12_GLOBAL__N_121future_error_categoryE
                0xffc1ffff       0x29 C:\PROGRA~2\GCCFOR~2.201\rx-elf\rx-elf/rx-elf/lib\libstdc++.a(future.o)
 .rodata._ZTIN12_GLOBAL__N_121future_error_categoryE
                0xffc20028        0xc C:\PROGRA~2\GCCFOR~2.201\rx-elf\rx-elf/rx-elf/lib\libstdc++.a(future.o)
 .rodata._ZTSSt12future_error
                0xffc20034       0x11 C:\PROGRA~2\GCCFOR~2.201\rx-elf\rx-elf/rx-elf/lib\libstdc++.a(future.o)
                0xffc20034                typeinfo name for std::future_error
 *fill*         0xffc20045        0x3 
 .rodata._ZTISt12future_error
                0xffc20048        0xc C:\PROGRA~2\GCCFOR~2.201\rx-elf\rx-elf/rx-elf/lib\libstdc++.a(future.o)
                0xffc20048                typeinfo for std::future_error
 .rodata._ZTVN12_GLOBAL__N_121future_error_categoryE
                0xffc20054       0x24 C:\PROGRA~2\GCCFOR~2.201\rx-elf\rx-elf/rx-elf/lib\libstdc++.a(future.o)
 .rodata._ZTVSt12future_error
                0xffc20078       0x14 C:\PROGRA~2\GCCFOR~2.201\rx-elf\rx-elf/rx-elf/lib\libstdc++.a(future.o)
                0xffc20078                vtable for std::future_error
 .rodata.str1.1
                0xffc2008c      0x147 C:\PROGRA~2\GCCFOR~2.201\rx-elf\rx-elf/rx-elf/lib\libstdc++.a(string-inst.o)
 .rodata._ZNSs4_Rep11_S_terminalE
                0xffc201d3        0x1 C:\PROGRA~2\GCCFOR~2.201\rx-elf\rx-elf/rx-elf/lib\libstdc++.a(string-inst.o)
                0xffc201d3                std::string::_Rep::_S_terminal
 .rodata._ZNSs4_Rep11_S_max_sizeE
                0xffc201d4        0x4 C:\PROGRA~2\GCCFOR~2.201\rx-elf\rx-elf/rx-elf/lib\libstdc++.a(string-inst.o)
                0xffc201d4                std::string::_Rep::_S_max_size
 .rodata._ZNSs4nposE
                0xffc201d8        0x4 C:\PROGRA~2\GCCFOR~2.201\rx-elf\rx-elf/rx-elf/lib\libstdc++.a(string-inst.o)
                0xffc201d8                std::string::npos
 .rodata.str1.1
                0xffc201dc        0xc C:\PROGRA~2\GCCFOR~2.201\rx-elf\rx-elf/rx-elf/lib\libstdc++.a(regex.o)
 .rodata._ZTSSt11regex_error
                0xffc201e8       0x10 C:\PROGRA~2\GCCFOR~2.201\rx-elf\rx-elf/rx-elf/lib\libstdc++.a(regex.o)
                0xffc201e8                typeinfo name for std::regex_error
 .rodata._ZTISt11regex_error
                0xffc201f8        0xc C:\PROGRA~2\GCCFOR~2.201\rx-elf\rx-elf/rx-elf/lib\libstdc++.a(regex.o)
                0xffc201f8                typeinfo for std::regex_error
 .rodata._ZTVSt11regex_error
                0xffc20204       0x14 C:\PROGRA~2\GCCFOR~2.201\rx-elf\rx-elf/rx-elf/lib\libstdc++.a(regex.o)
                0xffc20204                vtable for std::regex_error
 .rodata.str1.1
                0xffc20218      0x696 C:\Users\ryota\e2_studio\workspace\umouse\HardwareDebug\libumouse.a(strerror.o)
                                0x697 (size before relaxing)
 *(C_1)
 *(C_2)
 *(C)
 *fill*         0xffc208ae        0x2 
 C              0xffc208b0       0x40 ./src/main.o
 C              0xffc208f0       0x20 ./src/mode/mode.o
 C              0xffc20910       0x34 ./src/peripheral/uart.o
 C              0xffc20944    0x14280 ./src/umouse_object/sound.o
 C              0xffc34bc4        0x4 libumouse.a(impure.o)
                0xffc34bc4                _global_impure_ptr
 C              0xffc34bc8      0x184 libumouse.a(svfprintf.o)
 C              0xffc34d4c       0x80 libumouse.a(mprec.o)
                0xffc34d58                __mprec_tinytens
                0xffc34d60                __mprec_bigtens
                0xffc34d68                __mprec_tens
 C              0xffc34dcc      0x184 libumouse.a(svfiprintf.o)
 C              0xffc34f50      0x184 libumouse.a(vfiprintf.o)
 C              0xffc350d4      0x100 C:\PROGRA~2\GCCFOR~2.201\rx-elf\rx-elf/lib/gcc/rx-elf/4.8.0.201602-GNURX\libgcc.a(_clz.o)
                0xffc350d4                __clz_tab
 C              0xffc351d4     0x1020 C:\PROGRA~2\GCCFOR~2.201\rx-elf\rx-elf/rx-elf/lib\libstdc++.a(cp-demangle.o)
 C              0xffc361f4      0x478 C:\Users\ryota\e2_studio\workspace\umouse\HardwareDebug\libumouse.a(strerror.o)
                0xffc3666c                _erodata = .

.eh_frame_hdr
 *(.eh_frame_hdr)

.eh_frame
 *(.eh_frame)

.jcr
 *(.jcr)

.tors           0xffc3666c        0x0
                0xffc3666c                __CTOR_LIST__ = .
                0xffc3666c                . = ALIGN (0x2)
                0xffc3666c                ___ctors = .
 *(.ctors)
                0xffc3666c                ___ctors_end = .
                0xffc3666c                __CTOR_END__ = .
                0xffc3666c                __DTOR_LIST__ = .
                0xffc3666c                ___dtors = .
 *(.dtors)
                0xffc3666c                ___dtors_end = .
                0xffc3666c                __DTOR_END__ = .
                0xffc3666c                . = ALIGN (0x2)
                0xffc3666c                _mdata = .

.ofs4           0x00120060       0x10
 *(.ofs4)
 .ofs4          0x00120060       0x10 ./src/other/vector_table.o
                0x00120060                __OFS1reg
                0x00120064                __OFS0reg
                0x00120068                __MDEreg
                0x0012006c                __TMINFreg

.ofs3           0x00120050       0x10
 *(.ofs3)
 .ofs3          0x00120050       0x10 ./src/other/vector_table.o
                0x00120050                __OSISreg

.ofs2           0x00120048        0x4
 *(.ofs2)
 .ofs2          0x00120048        0x4 ./src/other/vector_table.o
                0x00120048                __TMEFreg

.ofs1           0x00120040        0x4
 *(.ofs1)
 .ofs1          0x00120040        0x4 ./src/other/vector_table.o
                0x00120040                __SPCCreg

.data           0x00006000      0x8f4 load address 0xffc3666c
                0x00006000                _data = .
 *(.data)
 .data          0x00006000        0x4 ./src/other/reset_program.o
                0x00006000                __dso_handle
 *(.data.*)
 .data._ZN10__cxxabiv119__terminate_handlerE
                0x00006004        0x4 C:\PROGRA~2\GCCFOR~2.201\rx-elf\rx-elf/rx-elf/lib\libstdc++.a(eh_term_handler.o)
                0x00006004                __cxxabiv1::__terminate_handler
 .data._ZN10__cxxabiv120__unexpected_handlerE
                0x00006008        0x4 C:\PROGRA~2\GCCFOR~2.201\rx-elf\rx-elf/rx-elf/lib\libstdc++.a(eh_unex_handler.o)
                0x00006008                __cxxabiv1::__unexpected_handler
 *(D)
 D              0x0000600c       0x30 ./src/utility/myUtil.o
 D              0x0000603c      0x428 libumouse.a(impure.o)
                0x0000603c                _impure_ptr
 D              0x00006464        0x4 libumouse.a(s_lib_ver.o)
                0x00006464                __fdlib_version
 D              0x00006468       0x7c libumouse.a(locale.o)
                0x000064e0                __mb_cur_max
 D              0x000064e4      0x410 libumouse.a(mallocr.o)
                0x000064e4                __malloc_sbrk_base
                0x000064e8                __malloc_trim_threshold
                0x000064ec                __malloc_av_
 *(D_1)
 D_1            0x000068f4        0x0 ./src/main.o
 D_1            0x000068f4        0x0 ./src/mode/mode.o
 D_1            0x000068f4        0x0 ./src/mode/mode_B.o
 D_1            0x000068f4        0x0 ./src/mode/mode_G.o
 D_1            0x000068f4        0x0 ./src/mode/mode_GB.o
 D_1            0x000068f4        0x0 ./src/mode/mode_N.o
 D_1            0x000068f4        0x0 ./src/mode/mode_R.o
 D_1            0x000068f4        0x0 ./src/mode/mode_RB.o
 D_1            0x000068f4        0x0 ./src/mode/mode_RG.o
 D_1            0x000068f4        0x0 ./src/mode/mode_RGB.o
 D_1            0x000068f4        0x0 ./src/other/hardware_setup.o
 D_1            0x000068f4        0x0 ./src/other/interrupt_handlers.o
 D_1            0x000068f4        0x0 ./src/other/reset_program.o
 D_1            0x000068f4        0x0 ./src/other/vector_table.o
 D_1            0x000068f4        0x0 ./src/peripheral/ad.o
 D_1            0x000068f4        0x0 ./src/peripheral/clock.o
 D_1            0x000068f4        0x0 ./src/peripheral/da.o
 D_1            0x000068f4        0x0 ./src/peripheral/gpio.o
 D_1            0x000068f4        0x0 ./src/peripheral/phaseCounting.o
 D_1            0x000068f4        0x0 ./src/peripheral/pwm.o
 D_1            0x000068f4        0x0 ./src/peripheral/r_init_non_existent_port.o
 D_1            0x000068f4        0x0 ./src/peripheral/spi.o
 D_1            0x000068f4        0x0 ./src/peripheral/timeInterrupt.o
 D_1            0x000068f4        0x0 ./src/peripheral/timer.o
 D_1            0x000068f4        0x0 ./src/peripheral/uart.o
 D_1            0x000068f4        0x0 ./src/robot_object/abcled.o
 D_1            0x000068f4        0x0 ./src/robot_object/fcled.o
 D_1            0x000068f4        0x0 ./src/robot_object/gamepad.o
 D_1            0x000068f4        0x0 ./src/robot_object/mouse.o
 D_1            0x000068f4        0x0 ./src/robot_object/tactsw.o
 D_1            0x000068f4        0x0 ./src/umouse_object/imu.o
 D_1            0x000068f4        0x0 ./src/umouse_object/maze.o
 D_1            0x000068f4        0x0 ./src/umouse_object/mpu9250_spi.o
 D_1            0x000068f4        0x0 ./src/umouse_object/sound.o
 D_1            0x000068f4        0x0 ./src/umouse_object/sound__.o
 D_1            0x000068f4        0x0 ./src/utility/myUtil.o
 D_1            0x000068f4        0x0 libumouse.a(abort.o)
 D_1            0x000068f4        0x0 libumouse.a(cxa_atexit.o)
 D_1            0x000068f4        0x0 libumouse.a(exit.o)
 D_1            0x000068f4        0x0 libumouse.a(memmove.o)
 D_1            0x000068f4        0x0 libumouse.a(vsprintf.o)
 D_1            0x000068f4        0x0 libumouse.a(wf_sqrt.o)
 D_1            0x000068f4        0x0 libumouse.a(__atexit.o)
 D_1            0x000068f4        0x0 libumouse.a(ef_sqrt.o)
 D_1            0x000068f4        0x0 libumouse.a(errno.o)
 D_1            0x000068f4        0x0 libumouse.a(impure.o)
 D_1            0x000068f4        0x0 libumouse.a(s_lib_ver.o)
 D_1            0x000068f4        0x0 libumouse.a(s_matherr.o)
 D_1            0x000068f4        0x0 libumouse.a(sf_fpclassify.o)
 D_1            0x000068f4        0x0 libumouse.a(svfprintf.o)
 D_1            0x000068f4        0x0 libumouse.a(dtoa.o)
 D_1            0x000068f4        0x0 libumouse.a(locale.o)
 D_1            0x000068f4        0x0 libumouse.a(mallocr.o)
 D_1            0x000068f4        0x0 libumouse.a(memchr.o)
 D_1            0x000068f4        0x0 libumouse.a(memcpy.o)
 D_1            0x000068f4        0x0 libumouse.a(memset.o)
 D_1            0x000068f4        0x0 libumouse.a(mlock.o)
 D_1            0x000068f4        0x0 libumouse.a(mprec.o)
 D_1            0x000068f4        0x0 libumouse.a(sbrkr.o)
 D_1            0x000068f4        0x0 libumouse.a(strcmp.o)
 D_1            0x000068f4        0x0 libumouse.a(strlen.o)
 D_1            0x000068f4        0x0 libumouse.a(svfiprintf.o)
 D_1            0x000068f4        0x0 libumouse.a(fiprintf.o)
 D_1            0x000068f4        0x0 libumouse.a(reent.o)
 D_1            0x000068f4        0x0 libumouse.a(sbrk.o)
 D_1            0x000068f4        0x0 libumouse.a(vfiprintf.o)
 D_1            0x000068f4        0x0 libumouse.a(wsetup.o)
 D_1            0x000068f4        0x0 libumouse.a(findfp.o)
 D_1            0x000068f4        0x0 libumouse.a(fputc.o)
 D_1            0x000068f4        0x0 libumouse.a(fvwrite.o)
 D_1            0x000068f4        0x0 libumouse.a(fwalk.o)
 D_1            0x000068f4        0x0 libumouse.a(makebuf.o)
 D_1            0x000068f4        0x0 libumouse.a(putc.o)
 D_1            0x000068f4        0x0 libumouse.a(stdio.o)
 D_1            0x000068f4        0x0 libumouse.a(wbuf.o)
 D_1            0x000068f4        0x0 libumouse.a(writer.o)
 D_1            0x000068f4        0x0 libumouse.a(closer.o)
 D_1            0x000068f4        0x0 libumouse.a(fclose.o)
 D_1            0x000068f4        0x0 libumouse.a(fflush.o)
 D_1            0x000068f4        0x0 libumouse.a(fstatr.o)
 D_1            0x000068f4        0x0 libumouse.a(isattyr.o)
 D_1            0x000068f4        0x0 libumouse.a(lseekr.o)
 D_1            0x000068f4        0x0 libumouse.a(readr.o)
 D_1            0x000068f4        0x0 libumouse.a(write.o)
 D_1            0x000068f4        0x0 libumouse.a(close.o)
 D_1            0x000068f4        0x0 libumouse.a(fstat.o)
 D_1            0x000068f4        0x0 libumouse.a(isatty.o)
 D_1            0x000068f4        0x0 libumouse.a(lseek.o)
 D_1            0x000068f4        0x0 libumouse.a(read.o)
 D_1            0x000068f4        0x0 C:\PROGRA~2\GCCFOR~2.201\rx-elf\rx-elf/lib/gcc/rx-elf/4.8.0.201602-GNURX\libgcc.a(_fixsfdi.o)
 D_1            0x000068f4        0x0 C:\PROGRA~2\GCCFOR~2.201\rx-elf\rx-elf/lib/gcc/rx-elf/4.8.0.201602-GNURX\libgcc.a(_fixunssfdi.o)
 D_1            0x000068f4        0x0 C:\PROGRA~2\GCCFOR~2.201\rx-elf\rx-elf/lib/gcc/rx-elf/4.8.0.201602-GNURX\libgcc.a(_floatdisf.o)
 D_1            0x000068f4        0x0 C:\PROGRA~2\GCCFOR~2.201\rx-elf\rx-elf/lib/gcc/rx-elf/4.8.0.201602-GNURX\libgcc.a(_umoddi3.o)
 D_1            0x000068f4        0x0 C:\PROGRA~2\GCCFOR~2.201\rx-elf\rx-elf/lib/gcc/rx-elf/4.8.0.201602-GNURX\libgcc.a(unwind-sjlj.o)
 D_1            0x000068f4        0x0 C:\PROGRA~2\GCCFOR~2.201\rx-elf\rx-elf/lib/gcc/rx-elf/4.8.0.201602-GNURX\libgcc.a(_clz.o)
 D_1            0x000068f4        0x0 C:\PROGRA~2\GCCFOR~2.201\rx-elf\rx-elf/rx-elf/lib\libstdc++.a(eh_throw.o)
 D_1            0x000068f4        0x0 C:\PROGRA~2\GCCFOR~2.201\rx-elf\rx-elf/rx-elf/lib\libstdc++.a(guard.o)
 D_1            0x000068f4        0x0 C:\PROGRA~2\GCCFOR~2.201\rx-elf\rx-elf/rx-elf/lib\libstdc++.a(del_op.o)
 D_1            0x000068f4        0x0 C:\PROGRA~2\GCCFOR~2.201\rx-elf\rx-elf/rx-elf/lib\libstdc++.a(eh_personality.o)
 D_1            0x000068f4        0x0 C:\PROGRA~2\GCCFOR~2.201\rx-elf\rx-elf/rx-elf/lib\libstdc++.a(eh_term_handler.o)
 D_1            0x000068f4        0x0 C:\PROGRA~2\GCCFOR~2.201\rx-elf\rx-elf/rx-elf/lib\libstdc++.a(guard_error.o)
 D_1            0x000068f4        0x0 C:\PROGRA~2\GCCFOR~2.201\rx-elf\rx-elf/rx-elf/lib\libstdc++.a(si_class_type_info.o)
 D_1            0x000068f4        0x0 C:\PROGRA~2\GCCFOR~2.201\rx-elf\rx-elf/rx-elf/lib\libstdc++.a(vterminate.o)
 D_1            0x000068f4        0x0 C:\PROGRA~2\GCCFOR~2.201\rx-elf\rx-elf/rx-elf/lib\libstdc++.a(eh_call.o)
 D_1            0x000068f4        0x0 C:\PROGRA~2\GCCFOR~2.201\rx-elf\rx-elf/rx-elf/lib\libstdc++.a(eh_unex_handler.o)
 D_1            0x000068f4        0x0 C:\PROGRA~2\GCCFOR~2.201\rx-elf\rx-elf/rx-elf/lib\libstdc++.a(eh_catch.o)
 D_1            0x000068f4        0x0 C:\PROGRA~2\GCCFOR~2.201\rx-elf\rx-elf/rx-elf/lib\libstdc++.a(pure.o)
 D_1            0x000068f4        0x0 C:\PROGRA~2\GCCFOR~2.201\rx-elf\rx-elf/rx-elf/lib\libstdc++.a(eh_exception.o)
 D_1            0x000068f4        0x0 C:\PROGRA~2\GCCFOR~2.201\rx-elf\rx-elf/rx-elf/lib\libstdc++.a(cp-demangle.o)
 D_1            0x000068f4        0x0 C:\PROGRA~2\GCCFOR~2.201\rx-elf\rx-elf/rx-elf/lib\libstdc++.a(new_op.o)
 D_1            0x000068f4        0x0 C:\PROGRA~2\GCCFOR~2.201\rx-elf\rx-elf/rx-elf/lib\libstdc++.a(eh_terminate.o)
 D_1            0x000068f4        0x0 C:\PROGRA~2\GCCFOR~2.201\rx-elf\rx-elf/rx-elf/lib\libstdc++.a(eh_alloc.o)
 D_1            0x000068f4        0x0 C:\PROGRA~2\GCCFOR~2.201\rx-elf\rx-elf/rx-elf/lib\libstdc++.a(class_type_info.o)
 D_1            0x000068f4        0x0 C:\PROGRA~2\GCCFOR~2.201\rx-elf\rx-elf/rx-elf/lib\libstdc++.a(functexcept.o)
 D_1            0x000068f4        0x0 C:\PROGRA~2\GCCFOR~2.201\rx-elf\rx-elf/rx-elf/lib\libstdc++.a(functional.o)
 D_1            0x000068f4        0x0 C:\PROGRA~2\GCCFOR~2.201\rx-elf\rx-elf/rx-elf/lib\libstdc++.a(eh_globals.o)
 D_1            0x000068f4        0x0 C:\PROGRA~2\GCCFOR~2.201\rx-elf\rx-elf/rx-elf/lib\libstdc++.a(bad_typeid.o)
 D_1            0x000068f4        0x0 C:\PROGRA~2\GCCFOR~2.201\rx-elf\rx-elf/rx-elf/lib\libstdc++.a(bad_alloc.o)
 D_1            0x000068f4        0x0 C:\PROGRA~2\GCCFOR~2.201\rx-elf\rx-elf/rx-elf/lib\libstdc++.a(eh_type.o)
 D_1            0x000068f4        0x0 C:\PROGRA~2\GCCFOR~2.201\rx-elf\rx-elf/rx-elf/lib\libstdc++.a(bad_cast.o)
 D_1            0x000068f4        0x0 C:\PROGRA~2\GCCFOR~2.201\rx-elf\rx-elf/rx-elf/lib\libstdc++.a(tinfo.o)
 D_1            0x000068f4        0x0 C:\PROGRA~2\GCCFOR~2.201\rx-elf\rx-elf/rx-elf/lib\libstdc++.a(new_handler.o)
 D_1            0x000068f4        0x0 C:\PROGRA~2\GCCFOR~2.201\rx-elf\rx-elf/rx-elf/lib\libstdc++.a(stdexcept.o)
 D_1            0x000068f4        0x0 C:\PROGRA~2\GCCFOR~2.201\rx-elf\rx-elf/rx-elf/lib\libstdc++.a(ios_failure.o)
 D_1            0x000068f4        0x0 C:\PROGRA~2\GCCFOR~2.201\rx-elf\rx-elf/rx-elf/lib\libstdc++.a(system_error.o)
 D_1            0x000068f4        0x0 C:\PROGRA~2\GCCFOR~2.201\rx-elf\rx-elf/rx-elf/lib\libstdc++.a(future.o)
 D_1            0x000068f4        0x0 C:\PROGRA~2\GCCFOR~2.201\rx-elf\rx-elf/rx-elf/lib\libstdc++.a(string-inst.o)
 D_1            0x000068f4        0x0 C:\PROGRA~2\GCCFOR~2.201\rx-elf\rx-elf/rx-elf/lib\libstdc++.a(regex.o)
 D_1            0x000068f4        0x0 C:\Users\ryota\e2_studio\workspace\umouse\HardwareDebug\libumouse.a(fputs.o)
 D_1            0x000068f4        0x0 C:\Users\ryota\e2_studio\workspace\umouse\HardwareDebug\libumouse.a(fwrite.o)
 D_1            0x000068f4        0x0 C:\Users\ryota\e2_studio\workspace\umouse\HardwareDebug\libumouse.a(malloc.o)
 D_1            0x000068f4        0x0 C:\Users\ryota\e2_studio\workspace\umouse\HardwareDebug\libumouse.a(memcmp.o)
 D_1            0x000068f4        0x0 C:\Users\ryota\e2_studio\workspace\umouse\HardwareDebug\libumouse.a(realloc.o)
 D_1            0x000068f4        0x0 C:\Users\ryota\e2_studio\workspace\umouse\HardwareDebug\libumouse.a(sprintf.o)
 D_1            0x000068f4        0x0 C:\Users\ryota\e2_studio\workspace\umouse\HardwareDebug\libumouse.a(strerror.o)
 D_1            0x000068f4        0x0 C:\Users\ryota\e2_studio\workspace\umouse\HardwareDebug\libumouse.a(u_strerr.o)
 *(D_2)
                0x000068f4                _edata = .

.gcc_except_table._ZN5FcLedD2Ev
                0x000068f4        0x4 load address 0xffc36f60
 .gcc_except_table._ZN5FcLedD2Ev
                0x000068f4        0x4 ./src/main.o

.gcc_except_table._ZN5FcLed11getInstanceEv
                0x000068f8        0x6 load address 0xffc36f64
 .gcc_except_table._ZN5FcLed11getInstanceEv
                0x000068f8        0x6 ./src/main.o

.gcc_except_table._ZNSt11_Deque_baseIP13BaseMoveEventSaIS1_EE17_M_initialize_mapEm
                0x00006900       0x14 load address 0xffc36f6c
 .gcc_except_table._ZNSt11_Deque_baseIP13BaseMoveEventSaIS1_EE17_M_initialize_mapEm
                0x00006900       0x14 ./src/main.o

.gcc_except_table
                0x00006914       0x7a load address 0xffc36f80
 .gcc_except_table
                0x00006914       0x2c ./src/main.o
 .gcc_except_table
                0x00006940        0x6 ./src/mode/mode.o
 .gcc_except_table
                0x00006946        0xa ./src/mode/mode_B.o
 .gcc_except_table
                0x00006950       0x38 ./src/peripheral/uart.o
 .gcc_except_table
                0x00006988        0x6 ./src/umouse_object/sound.o

.gcc_except_table._ZNSt11_Deque_baseIhSaIhEE17_M_initialize_mapEm
                0x00006990       0x14 load address 0xffc36ffc
 .gcc_except_table._ZNSt11_Deque_baseIhSaIhEE17_M_initialize_mapEm
                0x00006990       0x14 ./src/peripheral/uart.o

.gcc_except_table._ZNSt11_Deque_baseI4NoteSaIS0_EE17_M_initialize_mapEm
                0x000069a4       0x14 load address 0xffc37010
 .gcc_except_table._ZNSt11_Deque_baseI4NoteSaIS0_EE17_M_initialize_mapEm
                0x000069a4       0x14 ./src/umouse_object/sound.o

.gcc_except_table._ZN12SoundManagerC2Ev
                0x000069b8        0x8 load address 0xffc37024
 .gcc_except_table._ZN12SoundManagerC2Ev
                0x000069b8        0x8 ./src/umouse_object/sound.o

.gcc_except_table._ZNSt11_Deque_baseIPFvvESaIS1_EE17_M_initialize_mapEm
                0x000069c0       0x14 load address 0xffc3702c
 .gcc_except_table._ZNSt11_Deque_baseIPFvvESaIS1_EE17_M_initialize_mapEm
                0x000069c0       0x14 ./src/umouse_object/sound.o

.gcc_except_table.__gxx_personality_sj0
                0x000069d4       0x10 load address 0xffc37040
 .gcc_except_table.__gxx_personality_sj0
                0x000069d4       0x10 C:\PROGRA~2\GCCFOR~2.201\rx-elf\rx-elf/rx-elf/lib\libstdc++.a(eh_personality.o)

.gcc_except_table.__cxa_call_unexpected
                0x000069e4       0x10 load address 0xffc37050
 .gcc_except_table.__cxa_call_unexpected
                0x000069e4       0x10 C:\PROGRA~2\GCCFOR~2.201\rx-elf\rx-elf/rx-elf/lib\libstdc++.a(eh_personality.o)

.gcc_except_table._ZN9__gnu_cxx27__verbose_terminate_handlerEv
                0x000069f4       0x18 load address 0xffc37060
 .gcc_except_table._ZN9__gnu_cxx27__verbose_terminate_handlerEv
                0x000069f4       0x18 C:\PROGRA~2\GCCFOR~2.201\rx-elf\rx-elf/rx-elf/lib\libstdc++.a(vterminate.o)

.gcc_except_table._Znwm
                0x00006a0c       0x14 load address 0xffc37078
 .gcc_except_table._Znwm
                0x00006a0c       0x14 C:\PROGRA~2\GCCFOR~2.201\rx-elf\rx-elf/rx-elf/lib\libstdc++.a(new_op.o)

.gcc_except_table._ZN10__cxxabiv111__terminateEPFvvE
                0x00006a20       0x18 load address 0xffc3708c
 .gcc_except_table._ZN10__cxxabiv111__terminateEPFvvE
                0x00006a20       0x18 C:\PROGRA~2\GCCFOR~2.201\rx-elf\rx-elf/rx-elf/lib\libstdc++.a(eh_terminate.o)

.gcc_except_table._ZSt19__throw_logic_errorPKc
                0x00006a38        0x8 load address 0xffc370a4
 .gcc_except_table._ZSt19__throw_logic_errorPKc
                0x00006a38        0x8 C:\PROGRA~2\GCCFOR~2.201\rx-elf\rx-elf/rx-elf/lib\libstdc++.a(functexcept.o)

.gcc_except_table._ZSt20__throw_domain_errorPKc
                0x00006a40        0x8 load address 0xffc370ac
 .gcc_except_table._ZSt20__throw_domain_errorPKc
                0x00006a40        0x8 C:\PROGRA~2\GCCFOR~2.201\rx-elf\rx-elf/rx-elf/lib\libstdc++.a(functexcept.o)

.gcc_except_table._ZSt24__throw_invalid_argumentPKc
                0x00006a48        0x8 load address 0xffc370b4
 .gcc_except_table._ZSt24__throw_invalid_argumentPKc
                0x00006a48        0x8 C:\PROGRA~2\GCCFOR~2.201\rx-elf\rx-elf/rx-elf/lib\libstdc++.a(functexcept.o)

.gcc_except_table._ZSt20__throw_length_errorPKc
                0x00006a50        0x8 load address 0xffc370bc
 .gcc_except_table._ZSt20__throw_length_errorPKc
                0x00006a50        0x8 C:\PROGRA~2\GCCFOR~2.201\rx-elf\rx-elf/rx-elf/lib\libstdc++.a(functexcept.o)

.gcc_except_table._ZSt20__throw_out_of_rangePKc
                0x00006a58        0x8 load address 0xffc370c4
 .gcc_except_table._ZSt20__throw_out_of_rangePKc
                0x00006a58        0x8 C:\PROGRA~2\GCCFOR~2.201\rx-elf\rx-elf/rx-elf/lib\libstdc++.a(functexcept.o)

.gcc_except_table._ZSt21__throw_runtime_errorPKc
                0x00006a60        0x8 load address 0xffc370cc
 .gcc_except_table._ZSt21__throw_runtime_errorPKc
                0x00006a60        0x8 C:\PROGRA~2\GCCFOR~2.201\rx-elf\rx-elf/rx-elf/lib\libstdc++.a(functexcept.o)

.gcc_except_table._ZSt19__throw_range_errorPKc
                0x00006a68        0x8 load address 0xffc370d4
 .gcc_except_table._ZSt19__throw_range_errorPKc
                0x00006a68        0x8 C:\PROGRA~2\GCCFOR~2.201\rx-elf\rx-elf/rx-elf/lib\libstdc++.a(functexcept.o)

.gcc_except_table._ZSt22__throw_overflow_errorPKc
                0x00006a70        0x8 load address 0xffc370dc
 .gcc_except_table._ZSt22__throw_overflow_errorPKc
                0x00006a70        0x8 C:\PROGRA~2\GCCFOR~2.201\rx-elf\rx-elf/rx-elf/lib\libstdc++.a(functexcept.o)

.gcc_except_table._ZSt23__throw_underflow_errorPKc
                0x00006a78        0x8 load address 0xffc370e4
 .gcc_except_table._ZSt23__throw_underflow_errorPKc
                0x00006a78        0x8 C:\PROGRA~2\GCCFOR~2.201\rx-elf\rx-elf/rx-elf/lib\libstdc++.a(functexcept.o)

.gcc_except_table._ZSt19__throw_ios_failurePKc
                0x00006a80        0x6 load address 0xffc370ec
 .gcc_except_table._ZSt19__throw_ios_failurePKc
                0x00006a80        0x6 C:\PROGRA~2\GCCFOR~2.201\rx-elf\rx-elf/rx-elf/lib\libstdc++.a(functexcept.o)

.gcc_except_table._ZSt20__throw_system_errori
                0x00006a86        0x8 load address 0xffc370f2
 .gcc_except_table._ZSt20__throw_system_errori
                0x00006a86        0x8 C:\PROGRA~2\GCCFOR~2.201\rx-elf\rx-elf/rx-elf/lib\libstdc++.a(functexcept.o)

.gcc_except_table._ZSt20__throw_future_errori
                0x00006a8e        0x8 load address 0xffc370fa
 .gcc_except_table._ZSt20__throw_future_errori
                0x00006a8e        0x8 C:\PROGRA~2\GCCFOR~2.201\rx-elf\rx-elf/rx-elf/lib\libstdc++.a(functexcept.o)

.gcc_except_table._ZSt19__throw_regex_errorNSt15regex_constants10error_typeE
                0x00006a96        0x6 load address 0xffc37102
 .gcc_except_table._ZSt19__throw_regex_errorNSt15regex_constants10error_typeE
                0x00006a96        0x6 C:\PROGRA~2\GCCFOR~2.201\rx-elf\rx-elf/rx-elf/lib\libstdc++.a(functexcept.o)

.gcc_except_table._ZNSt11logic_errorC2ERKSs
                0x00006a9c        0x6 load address 0xffc37108
 .gcc_except_table._ZNSt11logic_errorC2ERKSs
                0x00006a9c        0x6 C:\PROGRA~2\GCCFOR~2.201\rx-elf\rx-elf/rx-elf/lib\libstdc++.a(stdexcept.o)

.gcc_except_table._ZNSt13runtime_errorC2ERKSs
                0x00006aa2        0x6 load address 0xffc3710e
 .gcc_except_table._ZNSt13runtime_errorC2ERKSs
                0x00006aa2        0x6 C:\PROGRA~2\GCCFOR~2.201\rx-elf\rx-elf/rx-elf/lib\libstdc++.a(stdexcept.o)

.gcc_except_table._ZNSt8ios_base7failureC2ERKSs
                0x00006aa8       0x10 load address 0xffc37114
 .gcc_except_table._ZNSt8ios_base7failureC2ERKSs
                0x00006aa8       0x10 C:\PROGRA~2\GCCFOR~2.201\rx-elf\rx-elf/rx-elf/lib\libstdc++.a(ios_failure.o)

.gcc_except_table._ZNKSt12future_error4whatEv
                0x00006ab8        0x4 load address 0xffc37124
 .gcc_except_table._ZNKSt12future_error4whatEv
                0x00006ab8        0x4 C:\PROGRA~2\GCCFOR~2.201\rx-elf\rx-elf/rx-elf/lib\libstdc++.a(future.o)

.gcc_except_table._ZNK12_GLOBAL__N_121future_error_category7messageEi
                0x00006abc        0x6 load address 0xffc37128
 .gcc_except_table._ZNK12_GLOBAL__N_121future_error_category7messageEi
                0x00006abc        0x6 C:\PROGRA~2\GCCFOR~2.201\rx-elf\rx-elf/rx-elf/lib\libstdc++.a(future.o)

.gcc_except_table._ZNKSs4findERKSsm
                0x00006ac2        0x4 load address 0xffc3712e
 .gcc_except_table._ZNKSs4findERKSsm
                0x00006ac2        0x4 C:\PROGRA~2\GCCFOR~2.201\rx-elf\rx-elf/rx-elf/lib\libstdc++.a(string-inst.o)

.gcc_except_table._ZNKSs5rfindERKSsm
                0x00006ac6        0x4 load address 0xffc37132
 .gcc_except_table._ZNKSs5rfindERKSsm
                0x00006ac6        0x4 C:\PROGRA~2\GCCFOR~2.201\rx-elf\rx-elf/rx-elf/lib\libstdc++.a(string-inst.o)

.gcc_except_table._ZNKSs13find_first_ofERKSsm
                0x00006aca        0x4 load address 0xffc37136
 .gcc_except_table._ZNKSs13find_first_ofERKSsm
                0x00006aca        0x4 C:\PROGRA~2\GCCFOR~2.201\rx-elf\rx-elf/rx-elf/lib\libstdc++.a(string-inst.o)

.gcc_except_table._ZNKSs12find_last_ofERKSsm
                0x00006ace        0x4 load address 0xffc3713a
 .gcc_except_table._ZNKSs12find_last_ofERKSsm
                0x00006ace        0x4 C:\PROGRA~2\GCCFOR~2.201\rx-elf\rx-elf/rx-elf/lib\libstdc++.a(string-inst.o)

.gcc_except_table._ZNKSs17find_first_not_ofERKSsm
                0x00006ad2        0x4 load address 0xffc3713e
 .gcc_except_table._ZNKSs17find_first_not_ofERKSsm
                0x00006ad2        0x4 C:\PROGRA~2\GCCFOR~2.201\rx-elf\rx-elf/rx-elf/lib\libstdc++.a(string-inst.o)

.gcc_except_table._ZNKSs16find_last_not_ofERKSsm
                0x00006ad6        0x4 load address 0xffc37142
 .gcc_except_table._ZNKSs16find_last_not_ofERKSsm
                0x00006ad6        0x4 C:\PROGRA~2\GCCFOR~2.201\rx-elf\rx-elf/rx-elf/lib\libstdc++.a(string-inst.o)

.gcc_except_table._ZNSs5beginEv
                0x00006ada        0x4 load address 0xffc37146
 .gcc_except_table._ZNSs5beginEv
                0x00006ada        0x4 C:\PROGRA~2\GCCFOR~2.201\rx-elf\rx-elf/rx-elf/lib\libstdc++.a(string-inst.o)

.gcc_except_table._ZNSs4rendEv
                0x00006ade        0x4 load address 0xffc3714a
 .gcc_except_table._ZNSs4rendEv
                0x00006ade        0x4 C:\PROGRA~2\GCCFOR~2.201\rx-elf\rx-elf/rx-elf/lib\libstdc++.a(string-inst.o)

.gcc_except_table._ZNSs3endEv
                0x00006ae2        0x4 load address 0xffc3714e
 .gcc_except_table._ZNSs3endEv
                0x00006ae2        0x4 C:\PROGRA~2\GCCFOR~2.201\rx-elf\rx-elf/rx-elf/lib\libstdc++.a(string-inst.o)

.gcc_except_table._ZNSs6rbeginEv
                0x00006ae6        0x4 load address 0xffc37152
 .gcc_except_table._ZNSs6rbeginEv
                0x00006ae6        0x4 C:\PROGRA~2\GCCFOR~2.201\rx-elf\rx-elf/rx-elf/lib\libstdc++.a(string-inst.o)

.gcc_except_table._ZNSs5clearEv
                0x00006aea        0x4 load address 0xffc37156
 .gcc_except_table._ZNSs5clearEv
                0x00006aea        0x4 C:\PROGRA~2\GCCFOR~2.201\rx-elf\rx-elf/rx-elf/lib\libstdc++.a(string-inst.o)

.gcc_except_table._ZNSs13shrink_to_fitEv
                0x00006af0       0x10 load address 0xffc3715c
 .gcc_except_table._ZNSs13shrink_to_fitEv
                0x00006af0       0x10 C:\PROGRA~2\GCCFOR~2.201\rx-elf\rx-elf/rx-elf/lib\libstdc++.a(string-inst.o)

.gcc_except_table._ZStplIcSt11char_traitsIcESaIcEESbIT_T0_T1_EPKS3_RKS6_
                0x00006b00        0x6 load address 0xffc3716c
 .gcc_except_table._ZStplIcSt11char_traitsIcESaIcEESbIT_T0_T1_EPKS3_RKS6_
                0x00006b00        0x6 C:\PROGRA~2\GCCFOR~2.201\rx-elf\rx-elf/rx-elf/lib\libstdc++.a(string-inst.o)

.gcc_except_table._ZStplIcSt11char_traitsIcESaIcEESbIT_T0_T1_ES3_RKS6_
                0x00006b06        0x6 load address 0xffc37172
 .gcc_except_table._ZStplIcSt11char_traitsIcESaIcEESbIT_T0_T1_ES3_RKS6_
                0x00006b06        0x6 C:\PROGRA~2\GCCFOR~2.201\rx-elf\rx-elf/rx-elf/lib\libstdc++.a(string-inst.o)

.gcc_except_table._ZStplIcSt11char_traitsIcESaIcEESbIT_T0_T1_ERKS6_S8_
                0x00006b0c        0x6 load address 0xffc37178
 .gcc_except_table._ZStplIcSt11char_traitsIcESaIcEESbIT_T0_T1_ERKS6_S8_
                0x00006b0c        0x6 C:\PROGRA~2\GCCFOR~2.201\rx-elf\rx-elf/rx-elf/lib\libstdc++.a(string-inst.o)

.gcc_except_table._ZNSs7replaceEmmPKcm
                0x00006b12        0x6 load address 0xffc3717e
 .gcc_except_table._ZNSs7replaceEmmPKcm
                0x00006b12        0x6 C:\PROGRA~2\GCCFOR~2.201\rx-elf\rx-elf/rx-elf/lib\libstdc++.a(string-inst.o)

.gcc_except_table._ZNSt11regex_errorC2ENSt15regex_constants10error_typeE
                0x00006b18        0x6 load address 0xffc37184
 .gcc_except_table._ZNSt11regex_errorC2ENSt15regex_constants10error_typeE
                0x00006b18        0x6 C:\PROGRA~2\GCCFOR~2.201\rx-elf\rx-elf/rx-elf/lib\libstdc++.a(regex.o)

.gcc_exc
 *(.gcc_exc)

.bss            0x00006b20    0x1220c load address 0xffc3718c
                0x00006b20                _bss = .
 *(.bss)
 *(.bss.**)
 .bss._ZZN6UMouse6updateEvE9L_ENC_pre
                0x00006b20        0x4 ./src/main.o
                0x00006b20                UMouse::update()::L_ENC_pre
 .bss._ZZN6UMouse6updateEvE9L_ENC_now
                0x00006b24        0x4 ./src/main.o
                0x00006b24                UMouse::update()::L_ENC_now
 .bss._ZZN6UMouse6updateEvE9R_ENC_pre
                0x00006b28        0x4 ./src/main.o
                0x00006b28                UMouse::update()::R_ENC_pre
 .bss._ZZN6UMouse6updateEvE9R_ENC_now
                0x00006b2c        0x4 ./src/main.o
                0x00006b2c                UMouse::update()::R_ENC_now
 .bss._ZZN9EventList11getInstanceEvE8instance
                0x00006b30       0x28 ./src/main.o
                0x00006b30                EventList::getInstance()::instance
 .bss._ZZN7Gamepad11getInstanceEvE8instance
                0x00006b58       0x44 ./src/main.o
                0x00006b58                Gamepad::getInstance()::instance
 .bss._ZZN10WallSensor11getInstanceEvE8instance
                0x00006b9c       0x88 ./src/main.o
                0x00006b9c                WallSensor::getInstance()::instance
 .bss._ZZN5FcLed11getInstanceEvE8instance
                0x00006c24       0x24 ./src/main.o
                0x00006c24                FcLed::getInstance()::instance
 .bss._ZZN6TactSw11getInstanceEvE8instance
                0x00006c48        0x4 ./src/main.o
                0x00006c48                TactSw::getInstance()::instance
 .bss._ZZN9Icm20608G11getInstanceEvE8instance
                0x00006c4c       0x54 ./src/main.o
                0x00006c4c                Icm20608G::getInstance()::instance
 .bss._ZZN6UMouse11getInstanceEvE8instance
                0x00006ca0      0x998 ./src/main.o
                0x00006ca0                UMouse::getInstance()::instance
 .bss._ZZN7MPU925011getInstanceEvE8instance
                0x00007638       0x64 ./src/main.o
                0x00007638                MPU9250::getInstance()::instance
 .bss._ZGVZN9EventList11getInstanceEvE8instance
                0x0000769c        0x8 ./src/main.o
                0x0000769c                guard variable for EventList::getInstance()::instance
 .bss._ZGVZN7Gamepad11getInstanceEvE8instance
                0x000076a4        0x8 ./src/main.o
                0x000076a4                guard variable for Gamepad::getInstance()::instance
 .bss._ZGVZN10WallSensor11getInstanceEvE8instance
                0x000076ac        0x8 ./src/main.o
                0x000076ac                guard variable for WallSensor::getInstance()::instance
 .bss._ZGVZN6UMouse11getInstanceEvE8instance
                0x000076b4        0x8 ./src/main.o
                0x000076b4                guard variable for UMouse::getInstance()::instance
 .bss._ZGVZN5FcLed11getInstanceEvE8instance
                0x000076bc        0x8 ./src/main.o
                0x000076bc                guard variable for FcLed::getInstance()::instance
 .bss._ZGVZN6TactSw11getInstanceEvE8instance
                0x000076c4        0x8 ./src/main.o
                0x000076c4                guard variable for TactSw::getInstance()::instance
 .bss._ZGVZN7MPU925011getInstanceEvE8instance
                0x000076cc        0x8 ./src/main.o
                0x000076cc                guard variable for MPU9250::getInstance()::instance
 .bss._ZGVZN9Icm20608G11getInstanceEvE8instance
                0x000076d4        0x8 ./src/main.o
                0x000076d4                guard variable for Icm20608G::getInstance()::instance
 .bss._ZZN11SimpleTrape5isEndEvE10time_count
                0x000076dc        0x4 ./src/mode/mode_B.o
                0x000076dc                SimpleTrape::isEnd()::time_count
 .bss._ZZN9__gnu_cxx27__verbose_terminate_handlerEvE11terminating
                0x000076e0        0x1 C:\PROGRA~2\GCCFOR~2.201\rx-elf\rx-elf/rx-elf/lib\libstdc++.a(vterminate.o)
 *fill*         0x000076e1        0x3 
 .bss._ZL15dependents_used
                0x000076e4        0x4 C:\PROGRA~2\GCCFOR~2.201\rx-elf\rx-elf/rx-elf/lib\libstdc++.a(eh_alloc.o)
 .bss._ZL17dependents_buffer
                0x000076e8       0xf0 C:\PROGRA~2\GCCFOR~2.201\rx-elf\rx-elf/rx-elf/lib\libstdc++.a(eh_alloc.o)
 .bss._ZL14emergency_used
                0x000077d8        0x4 C:\PROGRA~2\GCCFOR~2.201\rx-elf\rx-elf/rx-elf/lib\libstdc++.a(eh_alloc.o)
 .bss._ZL16emergency_buffer
                0x000077dc      0x800 C:\PROGRA~2\GCCFOR~2.201\rx-elf\rx-elf/rx-elf/lib\libstdc++.a(eh_alloc.o)
 .bss._ZL10eh_globals
                0x00007fdc        0x8 C:\PROGRA~2\GCCFOR~2.201\rx-elf\rx-elf/rx-elf/lib\libstdc++.a(eh_globals.o)
 .bss.__new_handler
                0x00007fe4        0x4 C:\PROGRA~2\GCCFOR~2.201\rx-elf\rx-elf/rx-elf/lib\libstdc++.a(new_handler.o)
                0x00007fe4                __new_handler
 .bss._ZN12_GLOBAL__N_1L24system_category_instanceE
                0x00007fe8        0x4 C:\PROGRA~2\GCCFOR~2.201\rx-elf\rx-elf/rx-elf/lib\libstdc++.a(system_error.o)
 .bss._ZN12_GLOBAL__N_1L25generic_category_instanceE
                0x00007fec        0x4 C:\PROGRA~2\GCCFOR~2.201\rx-elf\rx-elf/rx-elf/lib\libstdc++.a(system_error.o)
 .bss._ZZN12_GLOBAL__N_126__future_category_instanceEvE5__fec
                0x00007ff0        0x4 C:\PROGRA~2\GCCFOR~2.201\rx-elf\rx-elf/rx-elf/lib\libstdc++.a(future.o)
 .bss._ZGVZN12_GLOBAL__N_126__future_category_instanceEvE5__fec
                0x00007ff4        0x8 C:\PROGRA~2\GCCFOR~2.201\rx-elf\rx-elf/rx-elf/lib\libstdc++.a(future.o)
 .bss._ZNSs4_Rep20_S_empty_rep_storageE
                0x00007ffc       0x10 C:\PROGRA~2\GCCFOR~2.201\rx-elf\rx-elf/rx-elf/lib\libstdc++.a(string-inst.o)
                0x00007ffc                std::string::_Rep::_S_empty_rep_storage
 *(COMMON)
 COMMON         0x0000800c        0x4 libumouse.a(reent.o)
                0x0000800c                errno
 *(B)
 B              0x00008010        0x4 ./src/main.o
                0x00008010                temp_V
 B              0x00008014        0xc libumouse.a(locale.o)
                0x00008014                _PathLocale
                0x00008018                __mlocale_changed
                0x0000801c                __nlocale_changed
 B              0x00008020       0x34 libumouse.a(mallocr.o)
                0x00008020                __malloc_current_mallinfo
                0x00008048                __malloc_max_total_mem
                0x0000804c                __malloc_max_sbrked_mem
                0x00008050                __malloc_top_pad
 *(B_1)
 B_1            0x00008054        0xc ./src/main.o
 B_1            0x00008060        0x0 ./src/mode/mode.o
 B_1            0x00008060        0x0 ./src/mode/mode_B.o
 B_1            0x00008060        0x0 ./src/mode/mode_G.o
 B_1            0x00008060        0x0 ./src/mode/mode_GB.o
 B_1            0x00008060        0x0 ./src/mode/mode_N.o
 B_1            0x00008060        0x0 ./src/mode/mode_R.o
 B_1            0x00008060        0x0 ./src/mode/mode_RB.o
 B_1            0x00008060        0x0 ./src/mode/mode_RG.o
 B_1            0x00008060        0x0 ./src/mode/mode_RGB.o
 B_1            0x00008060        0x0 ./src/other/hardware_setup.o
 B_1            0x00008060        0x0 ./src/other/interrupt_handlers.o
 B_1            0x00008060        0x0 ./src/other/reset_program.o
 B_1            0x00008060        0x0 ./src/other/vector_table.o
 B_1            0x00008060        0x0 ./src/peripheral/ad.o
 B_1            0x00008060        0x0 ./src/peripheral/clock.o
 B_1            0x00008060        0x0 ./src/peripheral/da.o
 B_1            0x00008060        0x0 ./src/peripheral/gpio.o
 B_1            0x00008060        0x0 ./src/peripheral/phaseCounting.o
 B_1            0x00008060        0x8 ./src/peripheral/pwm.o
 B_1            0x00008068        0x0 ./src/peripheral/r_init_non_existent_port.o
 B_1            0x00008068        0x0 ./src/peripheral/spi.o
 B_1            0x00008068        0x8 ./src/peripheral/timeInterrupt.o
 B_1            0x00008070        0x0 ./src/peripheral/timer.o
 B_1            0x00008070      0xf08 ./src/peripheral/uart.o
 B_1            0x00008f78        0x0 ./src/robot_object/abcled.o
 B_1            0x00008f78        0x0 ./src/robot_object/fcled.o
 B_1            0x00008f78        0x0 ./src/robot_object/gamepad.o
 B_1            0x00008f78        0x0 ./src/robot_object/mouse.o
 B_1            0x00008f78        0x0 ./src/robot_object/tactsw.o
 B_1            0x00008f78        0x0 ./src/umouse_object/imu.o
 B_1            0x00008f78        0x0 ./src/umouse_object/maze.o
 B_1            0x00008f78        0x0 ./src/umouse_object/mpu9250_spi.o
 B_1            0x00008f78     0xfdac ./src/umouse_object/sound.o
 B_1            0x00018d24        0x0 ./src/umouse_object/sound__.o
 B_1            0x00018d24        0x0 ./src/utility/myUtil.o
 B_1            0x00018d24        0x0 libumouse.a(abort.o)
 B_1            0x00018d24        0x0 libumouse.a(cxa_atexit.o)
 B_1            0x00018d24        0x0 libumouse.a(exit.o)
 B_1            0x00018d24        0x0 libumouse.a(memmove.o)
 B_1            0x00018d24        0x0 libumouse.a(vsprintf.o)
 B_1            0x00018d24        0x0 libumouse.a(wf_sqrt.o)
 B_1            0x00018d24        0x0 libumouse.a(__atexit.o)
 B_1            0x00018d24        0x0 libumouse.a(ef_sqrt.o)
 B_1            0x00018d24        0x0 libumouse.a(errno.o)
 B_1            0x00018d24        0x0 libumouse.a(impure.o)
 B_1            0x00018d24        0x0 libumouse.a(s_lib_ver.o)
 B_1            0x00018d24        0x0 libumouse.a(s_matherr.o)
 B_1            0x00018d24        0x0 libumouse.a(sf_fpclassify.o)
 B_1            0x00018d24        0x0 libumouse.a(svfprintf.o)
 B_1            0x00018d24        0x0 libumouse.a(dtoa.o)
 B_1            0x00018d24        0x0 libumouse.a(locale.o)
 B_1            0x00018d24        0x0 libumouse.a(mallocr.o)
 B_1            0x00018d24        0x0 libumouse.a(memchr.o)
 B_1            0x00018d24        0x0 libumouse.a(memcpy.o)
 B_1            0x00018d24        0x0 libumouse.a(memset.o)
 B_1            0x00018d24        0x0 libumouse.a(mlock.o)
 B_1            0x00018d24        0x0 libumouse.a(mprec.o)
 B_1            0x00018d24        0x0 libumouse.a(sbrkr.o)
 B_1            0x00018d24        0x0 libumouse.a(strcmp.o)
 B_1            0x00018d24        0x0 libumouse.a(strlen.o)
 B_1            0x00018d24        0x0 libumouse.a(svfiprintf.o)
 B_1            0x00018d24        0x0 libumouse.a(fiprintf.o)
 B_1            0x00018d24        0x0 libumouse.a(reent.o)
 B_1            0x00018d24        0x4 libumouse.a(sbrk.o)
 B_1            0x00018d28        0x0 libumouse.a(vfiprintf.o)
 B_1            0x00018d28        0x0 libumouse.a(wsetup.o)
 B_1            0x00018d28        0x0 libumouse.a(findfp.o)
 B_1            0x00018d28        0x0 libumouse.a(fputc.o)
 B_1            0x00018d28        0x0 libumouse.a(fvwrite.o)
 B_1            0x00018d28        0x0 libumouse.a(fwalk.o)
 B_1            0x00018d28        0x0 libumouse.a(makebuf.o)
 B_1            0x00018d28        0x0 libumouse.a(putc.o)
 B_1            0x00018d28        0x0 libumouse.a(stdio.o)
 B_1            0x00018d28        0x0 libumouse.a(wbuf.o)
 B_1            0x00018d28        0x0 libumouse.a(writer.o)
 B_1            0x00018d28        0x0 libumouse.a(closer.o)
 B_1            0x00018d28        0x0 libumouse.a(fclose.o)
 B_1            0x00018d28        0x0 libumouse.a(fflush.o)
 B_1            0x00018d28        0x0 libumouse.a(fstatr.o)
 B_1            0x00018d28        0x0 libumouse.a(isattyr.o)
 B_1            0x00018d28        0x0 libumouse.a(lseekr.o)
 B_1            0x00018d28        0x0 libumouse.a(readr.o)
 B_1            0x00018d28        0x0 libumouse.a(write.o)
 B_1            0x00018d28        0x0 libumouse.a(close.o)
 B_1            0x00018d28        0x0 libumouse.a(fstat.o)
 B_1            0x00018d28        0x0 libumouse.a(isatty.o)
 B_1            0x00018d28        0x0 libumouse.a(lseek.o)
 B_1            0x00018d28        0x0 libumouse.a(read.o)
 B_1            0x00018d28        0x0 C:\PROGRA~2\GCCFOR~2.201\rx-elf\rx-elf/lib/gcc/rx-elf/4.8.0.201602-GNURX\libgcc.a(_fixsfdi.o)
 B_1            0x00018d28        0x0 C:\PROGRA~2\GCCFOR~2.201\rx-elf\rx-elf/lib/gcc/rx-elf/4.8.0.201602-GNURX\libgcc.a(_fixunssfdi.o)
 B_1            0x00018d28        0x0 C:\PROGRA~2\GCCFOR~2.201\rx-elf\rx-elf/lib/gcc/rx-elf/4.8.0.201602-GNURX\libgcc.a(_floatdisf.o)
 B_1            0x00018d28        0x0 C:\PROGRA~2\GCCFOR~2.201\rx-elf\rx-elf/lib/gcc/rx-elf/4.8.0.201602-GNURX\libgcc.a(_umoddi3.o)
 B_1            0x00018d28        0x4 C:\PROGRA~2\GCCFOR~2.201\rx-elf\rx-elf/lib/gcc/rx-elf/4.8.0.201602-GNURX\libgcc.a(unwind-sjlj.o)
 B_1            0x00018d2c        0x0 C:\PROGRA~2\GCCFOR~2.201\rx-elf\rx-elf/lib/gcc/rx-elf/4.8.0.201602-GNURX\libgcc.a(_clz.o)
 B_1            0x00018d2c        0x0 C:\PROGRA~2\GCCFOR~2.201\rx-elf\rx-elf/rx-elf/lib\libstdc++.a(eh_throw.o)
 B_1            0x00018d2c        0x0 C:\PROGRA~2\GCCFOR~2.201\rx-elf\rx-elf/rx-elf/lib\libstdc++.a(guard.o)
 B_1            0x00018d2c        0x0 C:\PROGRA~2\GCCFOR~2.201\rx-elf\rx-elf/rx-elf/lib\libstdc++.a(del_op.o)
 B_1            0x00018d2c        0x0 C:\PROGRA~2\GCCFOR~2.201\rx-elf\rx-elf/rx-elf/lib\libstdc++.a(eh_personality.o)
 B_1            0x00018d2c        0x0 C:\PROGRA~2\GCCFOR~2.201\rx-elf\rx-elf/rx-elf/lib\libstdc++.a(eh_term_handler.o)
 B_1            0x00018d2c        0x0 C:\PROGRA~2\GCCFOR~2.201\rx-elf\rx-elf/rx-elf/lib\libstdc++.a(guard_error.o)
 B_1            0x00018d2c        0x0 C:\PROGRA~2\GCCFOR~2.201\rx-elf\rx-elf/rx-elf/lib\libstdc++.a(si_class_type_info.o)
 B_1            0x00018d2c        0x0 C:\PROGRA~2\GCCFOR~2.201\rx-elf\rx-elf/rx-elf/lib\libstdc++.a(vterminate.o)
 B_1            0x00018d2c        0x0 C:\PROGRA~2\GCCFOR~2.201\rx-elf\rx-elf/rx-elf/lib\libstdc++.a(eh_call.o)
 B_1            0x00018d2c        0x0 C:\PROGRA~2\GCCFOR~2.201\rx-elf\rx-elf/rx-elf/lib\libstdc++.a(eh_unex_handler.o)
 B_1            0x00018d2c        0x0 C:\PROGRA~2\GCCFOR~2.201\rx-elf\rx-elf/rx-elf/lib\libstdc++.a(eh_catch.o)
 B_1            0x00018d2c        0x0 C:\PROGRA~2\GCCFOR~2.201\rx-elf\rx-elf/rx-elf/lib\libstdc++.a(pure.o)
 B_1            0x00018d2c        0x0 C:\PROGRA~2\GCCFOR~2.201\rx-elf\rx-elf/rx-elf/lib\libstdc++.a(eh_exception.o)
 B_1            0x00018d2c        0x0 C:\PROGRA~2\GCCFOR~2.201\rx-elf\rx-elf/rx-elf/lib\libstdc++.a(cp-demangle.o)
 B_1            0x00018d2c        0x0 C:\PROGRA~2\GCCFOR~2.201\rx-elf\rx-elf/rx-elf/lib\libstdc++.a(new_op.o)
 B_1            0x00018d2c        0x0 C:\PROGRA~2\GCCFOR~2.201\rx-elf\rx-elf/rx-elf/lib\libstdc++.a(eh_terminate.o)
 B_1            0x00018d2c        0x0 C:\PROGRA~2\GCCFOR~2.201\rx-elf\rx-elf/rx-elf/lib\libstdc++.a(eh_alloc.o)
 B_1            0x00018d2c        0x0 C:\PROGRA~2\GCCFOR~2.201\rx-elf\rx-elf/rx-elf/lib\libstdc++.a(class_type_info.o)
 B_1            0x00018d2c        0x0 C:\PROGRA~2\GCCFOR~2.201\rx-elf\rx-elf/rx-elf/lib\libstdc++.a(functexcept.o)
 B_1            0x00018d2c        0x0 C:\PROGRA~2\GCCFOR~2.201\rx-elf\rx-elf/rx-elf/lib\libstdc++.a(functional.o)
 B_1            0x00018d2c        0x0 C:\PROGRA~2\GCCFOR~2.201\rx-elf\rx-elf/rx-elf/lib\libstdc++.a(eh_globals.o)
 B_1            0x00018d2c        0x0 C:\PROGRA~2\GCCFOR~2.201\rx-elf\rx-elf/rx-elf/lib\libstdc++.a(bad_typeid.o)
 B_1            0x00018d2c        0x0 C:\PROGRA~2\GCCFOR~2.201\rx-elf\rx-elf/rx-elf/lib\libstdc++.a(bad_alloc.o)
 B_1            0x00018d2c        0x0 C:\PROGRA~2\GCCFOR~2.201\rx-elf\rx-elf/rx-elf/lib\libstdc++.a(eh_type.o)
 B_1            0x00018d2c        0x0 C:\PROGRA~2\GCCFOR~2.201\rx-elf\rx-elf/rx-elf/lib\libstdc++.a(bad_cast.o)
 B_1            0x00018d2c        0x0 C:\PROGRA~2\GCCFOR~2.201\rx-elf\rx-elf/rx-elf/lib\libstdc++.a(tinfo.o)
 B_1            0x00018d2c        0x0 C:\PROGRA~2\GCCFOR~2.201\rx-elf\rx-elf/rx-elf/lib\libstdc++.a(new_handler.o)
 B_1            0x00018d2c        0x0 C:\PROGRA~2\GCCFOR~2.201\rx-elf\rx-elf/rx-elf/lib\libstdc++.a(stdexcept.o)
 B_1            0x00018d2c        0x0 C:\PROGRA~2\GCCFOR~2.201\rx-elf\rx-elf/rx-elf/lib\libstdc++.a(ios_failure.o)
 B_1            0x00018d2c        0x0 C:\PROGRA~2\GCCFOR~2.201\rx-elf\rx-elf/rx-elf/lib\libstdc++.a(system_error.o)
 B_1            0x00018d2c        0x0 C:\PROGRA~2\GCCFOR~2.201\rx-elf\rx-elf/rx-elf/lib\libstdc++.a(future.o)
 B_1            0x00018d2c        0x0 C:\PROGRA~2\GCCFOR~2.201\rx-elf\rx-elf/rx-elf/lib\libstdc++.a(string-inst.o)
 B_1            0x00018d2c        0x0 C:\PROGRA~2\GCCFOR~2.201\rx-elf\rx-elf/rx-elf/lib\libstdc++.a(regex.o)
 B_1            0x00018d2c        0x0 C:\Users\ryota\e2_studio\workspace\umouse\HardwareDebug\libumouse.a(fputs.o)
 B_1            0x00018d2c        0x0 C:\Users\ryota\e2_studio\workspace\umouse\HardwareDebug\libumouse.a(fwrite.o)
 B_1            0x00018d2c        0x0 C:\Users\ryota\e2_studio\workspace\umouse\HardwareDebug\libumouse.a(malloc.o)
 B_1            0x00018d2c        0x0 C:\Users\ryota\e2_studio\workspace\umouse\HardwareDebug\libumouse.a(memcmp.o)
 B_1            0x00018d2c        0x0 C:\Users\ryota\e2_studio\workspace\umouse\HardwareDebug\libumouse.a(realloc.o)
 B_1            0x00018d2c        0x0 C:\Users\ryota\e2_studio\workspace\umouse\HardwareDebug\libumouse.a(sprintf.o)
 B_1            0x00018d2c        0x0 C:\Users\ryota\e2_studio\workspace\umouse\HardwareDebug\libumouse.a(strerror.o)
 B_1            0x00018d2c        0x0 C:\Users\ryota\e2_studio\workspace\umouse\HardwareDebug\libumouse.a(u_strerr.o)
 *(B_2)
                0x00018d2c                _ebss = .
                0x00018d2c                _end = .

.ustack         0x00004000        0x0
                0x00004000                _ustack = .

.istack         0x00002000        0x0
                0x00002000                _istack = .
LOAD ./src/main.o
LOAD ./src/mode/mode.o
LOAD ./src/mode/mode_B.o
LOAD ./src/mode/mode_G.o
LOAD ./src/mode/mode_GB.o
LOAD ./src/mode/mode_N.o
LOAD ./src/mode/mode_R.o
LOAD ./src/mode/mode_RB.o
LOAD ./src/mode/mode_RG.o
LOAD ./src/mode/mode_RGB.o
LOAD ./src/other/hardware_setup.o
LOAD ./src/other/interrupt_handlers.o
LOAD ./src/other/reset_program.o
LOAD ./src/other/vector_table.o
LOAD ./src/peripheral/ad.o
LOAD ./src/peripheral/clock.o
LOAD ./src/peripheral/da.o
LOAD ./src/peripheral/gpio.o
LOAD ./src/peripheral/phaseCounting.o
LOAD ./src/peripheral/pwm.o
LOAD ./src/peripheral/r_init_non_existent_port.o
LOAD ./src/peripheral/spi.o
LOAD ./src/peripheral/timeInterrupt.o
LOAD ./src/peripheral/timer.o
LOAD ./src/peripheral/uart.o
LOAD ./src/robot_object/abcled.o
LOAD ./src/robot_object/fcled.o
LOAD ./src/robot_object/gamepad.o
LOAD ./src/robot_object/mouse.o
LOAD ./src/robot_object/tactsw.o
LOAD ./src/umouse_object/imu.o
LOAD ./src/umouse_object/maze.o
LOAD ./src/umouse_object/mpu9250_spi.o
LOAD ./src/umouse_object/sound.o
LOAD ./src/umouse_object/sound__.o
LOAD ./src/utility/myUtil.o
LOAD libumouse.a
LOAD libumouse.a
START GROUP
LOAD C:\Users\ryota\e2_studio\workspace\umouse\HardwareDebug\libumouse.a
LOAD C:\PROGRA~2\GCCFOR~2.201\rx-elf\rx-elf/lib/gcc/rx-elf/4.8.0.201602-GNURX\libgcc.a
LOAD C:\PROGRA~2\GCCFOR~2.201\rx-elf\rx-elf/rx-elf/lib\libstdc++.a
END GROUP
OUTPUT(umouse.x elf32-rx-le)

.debug_frame    0x00000000     0x26e0
 .debug_frame   0x00000000      0x218 ./src/main.o
 .debug_frame   0x00000218       0x80 ./src/mode/mode.o
 .debug_frame   0x00000298      0x17c ./src/mode/mode_B.o
 .debug_frame   0x00000414       0x2c ./src/mode/mode_G.o
 .debug_frame   0x00000440       0x60 ./src/mode/mode_GB.o
 .debug_frame   0x000004a0       0x60 ./src/mode/mode_N.o
 .debug_frame   0x00000500       0x2c ./src/mode/mode_R.o
 .debug_frame   0x0000052c       0x2c ./src/mode/mode_RB.o
 .debug_frame   0x00000558       0x2c ./src/mode/mode_RG.o
 .debug_frame   0x00000584       0x60 ./src/mode/mode_RGB.o
 .debug_frame   0x000005e4       0x24 ./src/other/hardware_setup.o
 .debug_frame   0x00000608      0xeac ./src/other/interrupt_handlers.o
 .debug_frame   0x000014b4       0xe4 ./src/peripheral/ad.o
 .debug_frame   0x00001598       0x24 ./src/peripheral/clock.o
 .debug_frame   0x000015bc       0x44 ./src/peripheral/da.o
 .debug_frame   0x00001600       0x24 ./src/peripheral/gpio.o
 .debug_frame   0x00001624       0x34 ./src/peripheral/phaseCounting.o
 .debug_frame   0x00001658       0x74 ./src/peripheral/pwm.o
 .debug_frame   0x000016cc       0x24 ./src/peripheral/r_init_non_existent_port.o
 .debug_frame   0x000016f0       0xc4 ./src/peripheral/spi.o
 .debug_frame   0x000017b4       0xe4 ./src/peripheral/timeInterrupt.o
 .debug_frame   0x00001898      0x114 ./src/peripheral/timer.o
 .debug_frame   0x000019ac      0x400 ./src/peripheral/uart.o
 .debug_frame   0x00001dac       0x50 ./src/robot_object/abcled.o
 .debug_frame   0x00001dfc       0x44 ./src/robot_object/fcled.o
 .debug_frame   0x00001e40      0x1d4 ./src/umouse_object/imu.o
 .debug_frame   0x00002014      0x5b0 ./src/umouse_object/sound.o
 .debug_frame   0x000025c4      0x11c ./src/utility/myUtil.o

.debug_info     0x00000000    0x8b75d
 .debug_info    0x00000000    0x10723 ./src/main.o
 .debug_info    0x00010723     0x4495 ./src/mode/mode.o
 .debug_info    0x00014bb8     0x695c ./src/mode/mode_B.o
 .debug_info    0x0001b514       0xf5 ./src/mode/mode_G.o
 .debug_info    0x0001b609      0x919 ./src/mode/mode_GB.o
 .debug_info    0x0001bf22      0x8f6 ./src/mode/mode_N.o
 .debug_info    0x0001c818      0x126 ./src/mode/mode_R.o
 .debug_info    0x0001c93e       0xf5 ./src/mode/mode_RB.o
 .debug_info    0x0001ca33       0xf5 ./src/mode/mode_RG.o
 .debug_info    0x0001cb28     0x175e ./src/mode/mode_RGB.o
 .debug_info    0x0001e286       0x5a ./src/other/hardware_setup.o
 .debug_info    0x0001e2e0     0x1046 ./src/other/interrupt_handlers.o
 .debug_info    0x0001f326       0x79 ./src/other/reset_program.o
 .debug_info    0x0001f39f      0x144 ./src/other/vector_table.o
 .debug_info    0x0001f4e3     0x6b02 ./src/peripheral/ad.o
 .debug_info    0x00025fe5     0x1dc0 ./src/peripheral/clock.o
 .debug_info    0x00027da5     0x5158 ./src/peripheral/da.o
 .debug_info    0x0002cefd     0x1b12 ./src/peripheral/gpio.o
 .debug_info    0x0002ea0f     0x6811 ./src/peripheral/phaseCounting.o
 .debug_info    0x00035220     0x70fd ./src/peripheral/pwm.o
 .debug_info    0x0003c31d     0x2e25 ./src/peripheral/r_init_non_existent_port.o
 .debug_info    0x0003f142     0x6705 ./src/peripheral/spi.o
 .debug_info    0x00045847     0x7efe ./src/peripheral/timeInterrupt.o
 .debug_info    0x0004d745     0x26ff ./src/peripheral/timer.o
 .debug_info    0x0004fe44    0x15dd6 ./src/peripheral/uart.o
 .debug_info    0x00065c1a      0x1ac ./src/robot_object/abcled.o
 .debug_info    0x00065dc6      0xf1a ./src/robot_object/fcled.o
 .debug_info    0x00066ce0       0x72 ./src/robot_object/gamepad.o
 .debug_info    0x00066d52       0x93 ./src/robot_object/mouse.o
 .debug_info    0x00066de5       0x79 ./src/robot_object/tactsw.o
 .debug_info    0x00066e5e     0x2f86 ./src/umouse_object/imu.o
 .debug_info    0x00069de4       0x72 ./src/umouse_object/maze.o
 .debug_info    0x00069e56    0x2136f ./src/umouse_object/sound.o
 .debug_info    0x0008b1c5      0x598 ./src/utility/myUtil.o

.debug_abbrev   0x00000000     0x58a6
 .debug_abbrev  0x00000000      0xb81 ./src/main.o
 .debug_abbrev  0x00000b81      0x7b5 ./src/mode/mode.o
 .debug_abbrev  0x00001336      0x9f9 ./src/mode/mode_B.o
 .debug_abbrev  0x00001d2f       0xab ./src/mode/mode_G.o
 .debug_abbrev  0x00001dda      0x297 ./src/mode/mode_GB.o
 .debug_abbrev  0x00002071      0x297 ./src/mode/mode_N.o
 .debug_abbrev  0x00002308       0xcc ./src/mode/mode_R.o
 .debug_abbrev  0x000023d4       0xab ./src/mode/mode_RB.o
 .debug_abbrev  0x0000247f       0xab ./src/mode/mode_RG.o
 .debug_abbrev  0x0000252a      0x3c7 ./src/mode/mode_RGB.o
 .debug_abbrev  0x000028f1       0x35 ./src/other/hardware_setup.o
 .debug_abbrev  0x00002926       0x8e ./src/other/interrupt_handlers.o
 .debug_abbrev  0x000029b4       0x12 ./src/other/reset_program.o
 .debug_abbrev  0x000029c6       0x78 ./src/other/vector_table.o
 .debug_abbrev  0x00002a3e      0x17d ./src/peripheral/ad.o
 .debug_abbrev  0x00002bbb      0x136 ./src/peripheral/clock.o
 .debug_abbrev  0x00002cf1      0x156 ./src/peripheral/da.o
 .debug_abbrev  0x00002e47       0xbf ./src/peripheral/gpio.o
 .debug_abbrev  0x00002f06      0x12b ./src/peripheral/phaseCounting.o
 .debug_abbrev  0x00003031      0x1ac ./src/peripheral/pwm.o
 .debug_abbrev  0x000031dd       0xd7 ./src/peripheral/r_init_non_existent_port.o
 .debug_abbrev  0x000032b4      0x25a ./src/peripheral/spi.o
 .debug_abbrev  0x0000350e      0x1a9 ./src/peripheral/timeInterrupt.o
 .debug_abbrev  0x000036b7      0x199 ./src/peripheral/timer.o
 .debug_abbrev  0x00003850      0xc20 ./src/peripheral/uart.o
 .debug_abbrev  0x00004470      0x115 ./src/robot_object/abcled.o
 .debug_abbrev  0x00004585      0x1f4 ./src/robot_object/fcled.o
 .debug_abbrev  0x00004779       0x26 ./src/robot_object/gamepad.o
 .debug_abbrev  0x0000479f       0x2d ./src/robot_object/mouse.o
 .debug_abbrev  0x000047cc       0x26 ./src/robot_object/tactsw.o
 .debug_abbrev  0x000047f2      0x481 ./src/umouse_object/imu.o
 .debug_abbrev  0x00004c73       0x26 ./src/umouse_object/maze.o
 .debug_abbrev  0x00004c99      0xad7 ./src/umouse_object/sound.o
 .debug_abbrev  0x00005770      0x136 ./src/utility/myUtil.o

.debug_loc      0x00000000    0x28206
 .debug_loc     0x00000000     0x2f15 ./src/main.o
 .debug_loc     0x00002f15      0x346 ./src/mode/mode.o
 .debug_loc     0x0000325b     0x22b6 ./src/mode/mode_B.o
 .debug_loc     0x00005511       0x18 ./src/mode/mode_GB.o
 .debug_loc     0x00005529       0x18 ./src/mode/mode_N.o
 .debug_loc     0x00005541      0x10a ./src/mode/mode_RGB.o
 .debug_loc     0x0000564b       0x90 ./src/peripheral/pwm.o
 .debug_loc     0x000056db      0x246 ./src/peripheral/spi.o
 .debug_loc     0x00005921       0x42 ./src/peripheral/timeInterrupt.o
 .debug_loc     0x00005963       0x84 ./src/peripheral/timer.o
 .debug_loc     0x000059e7     0x56c5 ./src/peripheral/uart.o
 .debug_loc     0x0000b0ac       0x6b ./src/robot_object/abcled.o
 .debug_loc     0x0000b117       0x63 ./src/robot_object/fcled.o
 .debug_loc     0x0000b17a     0x1094 ./src/umouse_object/imu.o
 .debug_loc     0x0000c20e    0x1bb7a ./src/umouse_object/sound.o
 .debug_loc     0x00027d88      0x47e ./src/utility/myUtil.o

.debug_aranges  0x00000000      0x5e0
 .debug_aranges
                0x00000000       0x88 ./src/main.o
 .debug_aranges
                0x00000088       0x38 ./src/mode/mode.o
 .debug_aranges
                0x000000c0       0x70 ./src/mode/mode_B.o
 .debug_aranges
                0x00000130       0x20 ./src/mode/mode_G.o
 .debug_aranges
                0x00000150       0x30 ./src/mode/mode_GB.o
 .debug_aranges
                0x00000180       0x30 ./src/mode/mode_N.o
 .debug_aranges
                0x000001b0       0x20 ./src/mode/mode_R.o
 .debug_aranges
                0x000001d0       0x20 ./src/mode/mode_RB.o
 .debug_aranges
                0x000001f0       0x20 ./src/mode/mode_RG.o
 .debug_aranges
                0x00000210       0x30 ./src/mode/mode_RGB.o
 .debug_aranges
                0x00000240       0x20 ./src/other/hardware_setup.o
 .debug_aranges
                0x00000260       0x20 ./src/other/interrupt_handlers.o
 .debug_aranges
                0x00000280       0x30 ./src/other/reset_program.o
 .debug_aranges
                0x000002b0       0x18 ./src/other/vector_table.o
 .debug_aranges
                0x000002c8       0x20 ./src/peripheral/ad.o
 .debug_aranges
                0x000002e8       0x20 ./src/peripheral/clock.o
 .debug_aranges
                0x00000308       0x20 ./src/peripheral/da.o
 .debug_aranges
                0x00000328       0x20 ./src/peripheral/gpio.o
 .debug_aranges
                0x00000348       0x20 ./src/peripheral/phaseCounting.o
 .debug_aranges
                0x00000368       0x20 ./src/peripheral/pwm.o
 .debug_aranges
                0x00000388       0x20 ./src/peripheral/r_init_non_existent_port.o
 .debug_aranges
                0x000003a8       0x20 ./src/peripheral/spi.o
 .debug_aranges
                0x000003c8       0x20 ./src/peripheral/timeInterrupt.o
 .debug_aranges
                0x000003e8       0x20 ./src/peripheral/timer.o
 .debug_aranges
                0x00000408       0x98 ./src/peripheral/uart.o
 .debug_aranges
                0x000004a0       0x20 ./src/robot_object/abcled.o
 .debug_aranges
                0x000004c0       0x20 ./src/robot_object/fcled.o
 .debug_aranges
                0x000004e0       0x18 ./src/robot_object/gamepad.o
 .debug_aranges
                0x000004f8       0x18 ./src/robot_object/mouse.o
 .debug_aranges
                0x00000510       0x18 ./src/robot_object/tactsw.o
 .debug_aranges
                0x00000528       0x20 ./src/umouse_object/imu.o
 .debug_aranges
                0x00000548       0x18 ./src/umouse_object/maze.o
 .debug_aranges
                0x00000560       0x60 ./src/umouse_object/sound.o
 .debug_aranges
                0x000005c0       0x20 ./src/utility/myUtil.o

.debug_ranges   0x00000000     0x91b8
 .debug_ranges  0x00000000      0xf70 ./src/main.o
 .debug_ranges  0x00000f70      0x128 ./src/mode/mode.o
 .debug_ranges  0x00001098      0x770 ./src/mode/mode_B.o
 .debug_ranges  0x00001808       0x88 ./src/mode/mode_GB.o
 .debug_ranges  0x00001890       0x90 ./src/mode/mode_N.o
 .debug_ranges  0x00001920       0xf8 ./src/mode/mode_RGB.o
 .debug_ranges  0x00001a18       0x28 ./src/other/reset_program.o
 .debug_ranges  0x00001a40       0x30 ./src/peripheral/ad.o
 .debug_ranges  0x00001a70       0xe8 ./src/peripheral/spi.o
 .debug_ranges  0x00001b58     0x1218 ./src/peripheral/uart.o
 .debug_ranges  0x00002d70      0x430 ./src/umouse_object/imu.o
 .debug_ranges  0x000031a0     0x6000 ./src/umouse_object/sound.o
 .debug_ranges  0x000091a0       0x18 ./src/utility/myUtil.o

.debug_line     0x00000000     0xa930
 .debug_line    0x00000000     0x1271 ./src/main.o
 .debug_line    0x00001271      0x678 ./src/mode/mode.o
 .debug_line    0x000018e9      0xd41 ./src/mode/mode_B.o
 .debug_line    0x0000262a       0xd2 ./src/mode/mode_G.o
 .debug_line    0x000026fc      0x241 ./src/mode/mode_GB.o
 .debug_line    0x0000293d      0x243 ./src/mode/mode_N.o
 .debug_line    0x00002b80       0xdf ./src/mode/mode_R.o
 .debug_line    0x00002c5f       0xd5 ./src/mode/mode_RB.o
 .debug_line    0x00002d34       0xd5 ./src/mode/mode_RG.o
 .debug_line    0x00002e09      0x304 ./src/mode/mode_RGB.o
 .debug_line    0x0000310d       0x4f ./src/other/hardware_setup.o
 .debug_line    0x0000315c      0x21e ./src/other/interrupt_handlers.o
 .debug_line    0x0000337a       0xae ./src/other/reset_program.o
 .debug_line    0x00003428       0x3c ./src/other/vector_table.o
 .debug_line    0x00003464      0x266 ./src/peripheral/ad.o
 .debug_line    0x000036ca       0xc3 ./src/peripheral/clock.o
 .debug_line    0x0000378d      0x102 ./src/peripheral/da.o
 .debug_line    0x0000388f       0x83 ./src/peripheral/gpio.o
 .debug_line    0x00003912       0x9d ./src/peripheral/phaseCounting.o
 .debug_line    0x000039af      0x18b ./src/peripheral/pwm.o
 .debug_line    0x00003b3a      0x134 ./src/peripheral/r_init_non_existent_port.o
 .debug_line    0x00003c6e      0x1de ./src/peripheral/spi.o
 .debug_line    0x00003e4c      0x13e ./src/peripheral/timeInterrupt.o
 .debug_line    0x00003f8a      0x154 ./src/peripheral/timer.o
 .debug_line    0x000040de     0x143f ./src/peripheral/uart.o
 .debug_line    0x0000551d      0x107 ./src/robot_object/abcled.o
 .debug_line    0x00005624      0x141 ./src/robot_object/fcled.o
 .debug_line    0x00005765       0x1d ./src/robot_object/gamepad.o
 .debug_line    0x00005782       0x1d ./src/robot_object/mouse.o
 .debug_line    0x0000579f       0x1d ./src/robot_object/tactsw.o
 .debug_line    0x000057bc      0x69a ./src/umouse_object/imu.o
 .debug_line    0x00005e56       0x1d ./src/umouse_object/maze.o
 .debug_line    0x00005e73        0x0 ./src/umouse_object/mpu9250_spi.o
 .debug_line    0x00005e73     0x4962 ./src/umouse_object/sound.o
 .debug_line    0x0000a7d5        0x0 ./src/umouse_object/sound__.o
 .debug_line    0x0000a7d5      0x15b ./src/utility/myUtil.o

.debug_str      0x00000000    0x14d22
 .debug_str     0x00000000     0x6654 ./src/main.o
                               0x6aee (size before relaxing)
 .debug_str     0x00006654     0x16f5 ./src/mode/mode.o
                               0x2900 (size before relaxing)
 .debug_str     0x00007d49      0x61f ./src/mode/mode_B.o
                               0x3a8b (size before relaxing)
 .debug_str     0x00008368       0x29 ./src/mode/mode_G.o
                                0x1ae (size before relaxing)
 .debug_str     0x00008391       0x2c ./src/mode/mode_GB.o
                                0x53a (size before relaxing)
 .debug_str     0x000083bd       0x29 ./src/mode/mode_N.o
                                0x50e (size before relaxing)
 .debug_str     0x000083e6       0x29 ./src/mode/mode_R.o
                                0x1d1 (size before relaxing)
 .debug_str     0x0000840f       0x2c ./src/mode/mode_RB.o
                                0x1b1 (size before relaxing)
 .debug_str     0x0000843b       0x2c ./src/mode/mode_RG.o
                                0x1b1 (size before relaxing)
 .debug_str     0x00008467       0x41 ./src/mode/mode_RGB.o
                                0x713 (size before relaxing)
 .debug_str     0x000084a8       0x2e ./src/other/hardware_setup.o
                                0x137 (size before relaxing)
 .debug_str     0x000084d6     0x151f ./src/other/interrupt_handlers.o
                               0x1565 (size before relaxing)
 .debug_str     0x000099f5       0x93 ./src/other/vector_table.o
                                0x174 (size before relaxing)
 .debug_str     0x00009a88      0x708 ./src/peripheral/ad.o
                               0x138e (size before relaxing)
 .debug_str     0x0000a190       0x55 ./src/peripheral/clock.o
                                0xa0c (size before relaxing)
 .debug_str     0x0000a1e5       0xa7 ./src/peripheral/da.o
                                0xf40 (size before relaxing)
 .debug_str     0x0000a28c       0x24 ./src/peripheral/gpio.o
                                0x185 (size before relaxing)
 .debug_str     0x0000a2b0      0x2c9 ./src/peripheral/phaseCounting.o
                               0x1264 (size before relaxing)
 .debug_str     0x0000a579      0x11f ./src/peripheral/pwm.o
                               0x1377 (size before relaxing)
 .debug_str     0x0000a698       0x77 ./src/peripheral/r_init_non_existent_port.o
                                0x246 (size before relaxing)
 .debug_str     0x0000a70f      0x312 ./src/peripheral/spi.o
                               0x1202 (size before relaxing)
 .debug_str     0x0000aa21     0x35bd ./src/peripheral/timeInterrupt.o
                               0x4119 (size before relaxing)
 .debug_str     0x0000dfde      0x209 ./src/peripheral/timer.o
                                0xdb9 (size before relaxing)
 .debug_str     0x0000e1e7     0x2029 ./src/peripheral/uart.o
                               0x6aed (size before relaxing)
 .debug_str     0x00010210       0x28 ./src/robot_object/abcled.o
                                0x219 (size before relaxing)
 .debug_str     0x00010238       0x72 ./src/robot_object/fcled.o
                                0x324 (size before relaxing)
 .debug_str     0x000102aa       0x20 ./src/robot_object/gamepad.o
                                0x17a (size before relaxing)
 .debug_str     0x000102ca       0x1e ./src/robot_object/mouse.o
                                0x1a8 (size before relaxing)
 .debug_str     0x000102e8       0x1f ./src/robot_object/tactsw.o
                                0x17e (size before relaxing)
 .debug_str     0x00010307      0x146 ./src/umouse_object/imu.o
                                0x8ec (size before relaxing)
 .debug_str     0x0001044d       0x1e ./src/umouse_object/maze.o
                                0x178 (size before relaxing)
 .debug_str     0x0001046b        0x0 ./src/umouse_object/mpu9250_spi.o
 .debug_str     0x0001046b     0x4745 ./src/umouse_object/sound.o
                               0x5f71 (size before relaxing)
 .debug_str     0x00014bb0        0x0 ./src/umouse_object/sound__.o
 .debug_str     0x00014bb0      0x172 ./src/utility/myUtil.o
                                0x41c (size before relaxing)

.comment        0x00000000       0x5a
 .comment       0x00000000       0x2d ./src/main.o
                                 0x2e (size before relaxing)
 .comment       0x00000000       0x2e ./src/mode/mode.o
 .comment       0x00000000       0x2e ./src/mode/mode_B.o
 .comment       0x00000000       0x2e ./src/mode/mode_G.o
 .comment       0x00000000       0x2e ./src/mode/mode_GB.o
 .comment       0x00000000       0x2e ./src/mode/mode_N.o
 .comment       0x00000000       0x2e ./src/mode/mode_R.o
 .comment       0x00000000       0x2e ./src/mode/mode_RB.o
 .comment       0x00000000       0x2e ./src/mode/mode_RG.o
 .comment       0x00000000       0x2e ./src/mode/mode_RGB.o
 .comment       0x00000000       0x2e ./src/other/hardware_setup.o
 .comment       0x00000000       0x2e ./src/other/interrupt_handlers.o
 .comment       0x00000000       0x2e ./src/other/vector_table.o
 .comment       0x00000000       0x2e ./src/peripheral/ad.o
 .comment       0x00000000       0x2e ./src/peripheral/clock.o
 .comment       0x00000000       0x2e ./src/peripheral/da.o
 .comment       0x00000000       0x2e ./src/peripheral/gpio.o
 .comment       0x00000000       0x2e ./src/peripheral/phaseCounting.o
 .comment       0x00000000       0x2e ./src/peripheral/pwm.o
 .comment       0x00000000       0x2e ./src/peripheral/r_init_non_existent_port.o
 .comment       0x00000000       0x2e ./src/peripheral/spi.o
 .comment       0x00000000       0x2e ./src/peripheral/timeInterrupt.o
 .comment       0x00000000       0x2e ./src/peripheral/timer.o
 .comment       0x00000000       0x2e ./src/peripheral/uart.o
 .comment       0x00000000       0x2e ./src/robot_object/abcled.o
 .comment       0x00000000       0x2e ./src/robot_object/fcled.o
 .comment       0x00000000       0x2e ./src/robot_object/gamepad.o
 .comment       0x00000000       0x2e ./src/robot_object/mouse.o
 .comment       0x00000000       0x2e ./src/robot_object/tactsw.o
 .comment       0x00000000       0x2e ./src/umouse_object/imu.o
 .comment       0x00000000       0x2e ./src/umouse_object/maze.o
 .comment       0x00000000       0x2e ./src/umouse_object/mpu9250_spi.o
 .comment       0x00000000       0x2e ./src/umouse_object/sound.o
 .comment       0x00000000       0x2e ./src/umouse_object/sound__.o
 .comment       0x00000000       0x2e ./src/utility/myUtil.o
 .comment       0x00000000       0x2e libumouse.a(cxa_atexit.o)
 .comment       0x00000000       0x2e libumouse.a(memmove.o)
 .comment       0x00000000       0x2e libumouse.a(vsprintf.o)
 .comment       0x00000000       0x2e libumouse.a(wf_sqrt.o)
 .comment       0x00000000       0x2e libumouse.a(__atexit.o)
 .comment       0x00000000       0x2e libumouse.a(ef_sqrt.o)
 .comment       0x00000000       0x2e libumouse.a(errno.o)
 .comment       0x00000000       0x2e libumouse.a(impure.o)
 .comment       0x00000000       0x2e libumouse.a(s_lib_ver.o)
 .comment       0x00000000       0x2e libumouse.a(s_matherr.o)
 .comment       0x00000000       0x2e libumouse.a(sf_fpclassify.o)
 .comment       0x00000000       0x2e libumouse.a(svfprintf.o)
 .comment       0x00000000       0x2e libumouse.a(dtoa.o)
 .comment       0x00000000       0x2e libumouse.a(locale.o)
 .comment       0x00000000       0x2e libumouse.a(mallocr.o)
 .comment       0x00000000       0x2e libumouse.a(memchr.o)
 .comment       0x00000000       0x2e libumouse.a(memcpy.o)
 .comment       0x00000000       0x2e libumouse.a(memset.o)
 .comment       0x00000000       0x2e libumouse.a(mlock.o)
 .comment       0x00000000       0x2e libumouse.a(mprec.o)
 .comment       0x00000000       0x2e libumouse.a(sbrkr.o)
 .comment       0x00000000       0x2e libumouse.a(strcmp.o)
 .comment       0x00000000       0x2e libumouse.a(strlen.o)
 .comment       0x00000000       0x2e libumouse.a(svfiprintf.o)
 .comment       0x00000000       0x2e libumouse.a(fiprintf.o)
 .comment       0x00000000       0x2e libumouse.a(reent.o)
 .comment       0x00000000       0x2e libumouse.a(sbrk.o)
 .comment       0x00000000       0x2e libumouse.a(vfiprintf.o)
 .comment       0x00000000       0x2e libumouse.a(wsetup.o)
 .comment       0x00000000       0x2e libumouse.a(findfp.o)
 .comment       0x00000000       0x2e libumouse.a(fputc.o)
 .comment       0x00000000       0x2e libumouse.a(fvwrite.o)
 .comment       0x00000000       0x2e libumouse.a(fwalk.o)
 .comment       0x00000000       0x2e libumouse.a(makebuf.o)
 .comment       0x00000000       0x2e libumouse.a(putc.o)
 .comment       0x00000000       0x2e libumouse.a(stdio.o)
 .comment       0x00000000       0x2e libumouse.a(wbuf.o)
 .comment       0x00000000       0x2e libumouse.a(writer.o)
 .comment       0x00000000       0x2e libumouse.a(closer.o)
 .comment       0x00000000       0x2e libumouse.a(fclose.o)
 .comment       0x00000000       0x2e libumouse.a(fflush.o)
 .comment       0x00000000       0x2e libumouse.a(fstatr.o)
 .comment       0x00000000       0x2e libumouse.a(isattyr.o)
 .comment       0x00000000       0x2e libumouse.a(lseekr.o)
 .comment       0x00000000       0x2e libumouse.a(readr.o)
 .comment       0x0000002d       0x2d C:\PROGRA~2\GCCFOR~2.201\rx-elf\rx-elf/lib/gcc/rx-elf/4.8.0.201602-GNURX\libgcc.a(_fixsfdi.o)
                                 0x2e (size before relaxing)
 .comment       0x00000000       0x2e C:\PROGRA~2\GCCFOR~2.201\rx-elf\rx-elf/lib/gcc/rx-elf/4.8.0.201602-GNURX\libgcc.a(_fixunssfdi.o)
 .comment       0x00000000       0x2e C:\PROGRA~2\GCCFOR~2.201\rx-elf\rx-elf/lib/gcc/rx-elf/4.8.0.201602-GNURX\libgcc.a(_floatdisf.o)
 .comment       0x00000000       0x2e C:\PROGRA~2\GCCFOR~2.201\rx-elf\rx-elf/lib/gcc/rx-elf/4.8.0.201602-GNURX\libgcc.a(_umoddi3.o)
 .comment       0x00000000       0x2e C:\PROGRA~2\GCCFOR~2.201\rx-elf\rx-elf/lib/gcc/rx-elf/4.8.0.201602-GNURX\libgcc.a(unwind-sjlj.o)
 .comment       0x00000000       0x2e C:\PROGRA~2\GCCFOR~2.201\rx-elf\rx-elf/lib/gcc/rx-elf/4.8.0.201602-GNURX\libgcc.a(_clz.o)
 .comment       0x00000000       0x2e C:\PROGRA~2\GCCFOR~2.201\rx-elf\rx-elf/rx-elf/lib\libstdc++.a(eh_throw.o)
 .comment       0x00000000       0x2e C:\PROGRA~2\GCCFOR~2.201\rx-elf\rx-elf/rx-elf/lib\libstdc++.a(guard.o)
 .comment       0x00000000       0x2e C:\PROGRA~2\GCCFOR~2.201\rx-elf\rx-elf/rx-elf/lib\libstdc++.a(del_op.o)
 .comment       0x00000000       0x2e C:\PROGRA~2\GCCFOR~2.201\rx-elf\rx-elf/rx-elf/lib\libstdc++.a(eh_personality.o)
 .comment       0x00000000       0x2e C:\PROGRA~2\GCCFOR~2.201\rx-elf\rx-elf/rx-elf/lib\libstdc++.a(eh_term_handler.o)
 .comment       0x00000000       0x2e C:\PROGRA~2\GCCFOR~2.201\rx-elf\rx-elf/rx-elf/lib\libstdc++.a(guard_error.o)
 .comment       0x00000000       0x2e C:\PROGRA~2\GCCFOR~2.201\rx-elf\rx-elf/rx-elf/lib\libstdc++.a(si_class_type_info.o)
 .comment       0x00000000       0x2e C:\PROGRA~2\GCCFOR~2.201\rx-elf\rx-elf/rx-elf/lib\libstdc++.a(vterminate.o)
 .comment       0x00000000       0x2e C:\PROGRA~2\GCCFOR~2.201\rx-elf\rx-elf/rx-elf/lib\libstdc++.a(eh_call.o)
 .comment       0x00000000       0x2e C:\PROGRA~2\GCCFOR~2.201\rx-elf\rx-elf/rx-elf/lib\libstdc++.a(eh_unex_handler.o)
 .comment       0x00000000       0x2e C:\PROGRA~2\GCCFOR~2.201\rx-elf\rx-elf/rx-elf/lib\libstdc++.a(eh_catch.o)
 .comment       0x00000000       0x2e C:\PROGRA~2\GCCFOR~2.201\rx-elf\rx-elf/rx-elf/lib\libstdc++.a(pure.o)
 .comment       0x00000000       0x2e C:\PROGRA~2\GCCFOR~2.201\rx-elf\rx-elf/rx-elf/lib\libstdc++.a(eh_exception.o)
 .comment       0x00000000       0x2e C:\PROGRA~2\GCCFOR~2.201\rx-elf\rx-elf/rx-elf/lib\libstdc++.a(cp-demangle.o)
 .comment       0x00000000       0x2e C:\PROGRA~2\GCCFOR~2.201\rx-elf\rx-elf/rx-elf/lib\libstdc++.a(new_op.o)
 .comment       0x00000000       0x2e C:\PROGRA~2\GCCFOR~2.201\rx-elf\rx-elf/rx-elf/lib\libstdc++.a(eh_terminate.o)
 .comment       0x00000000       0x2e C:\PROGRA~2\GCCFOR~2.201\rx-elf\rx-elf/rx-elf/lib\libstdc++.a(eh_alloc.o)
 .comment       0x00000000       0x2e C:\PROGRA~2\GCCFOR~2.201\rx-elf\rx-elf/rx-elf/lib\libstdc++.a(class_type_info.o)
 .comment       0x00000000       0x2e C:\PROGRA~2\GCCFOR~2.201\rx-elf\rx-elf/rx-elf/lib\libstdc++.a(functexcept.o)
 .comment       0x00000000       0x2e C:\PROGRA~2\GCCFOR~2.201\rx-elf\rx-elf/rx-elf/lib\libstdc++.a(functional.o)
 .comment       0x00000000       0x2e C:\PROGRA~2\GCCFOR~2.201\rx-elf\rx-elf/rx-elf/lib\libstdc++.a(eh_globals.o)
 .comment       0x00000000       0x2e C:\PROGRA~2\GCCFOR~2.201\rx-elf\rx-elf/rx-elf/lib\libstdc++.a(bad_typeid.o)
 .comment       0x00000000       0x2e C:\PROGRA~2\GCCFOR~2.201\rx-elf\rx-elf/rx-elf/lib\libstdc++.a(bad_alloc.o)
 .comment       0x00000000       0x2e C:\PROGRA~2\GCCFOR~2.201\rx-elf\rx-elf/rx-elf/lib\libstdc++.a(eh_type.o)
 .comment       0x00000000       0x2e C:\PROGRA~2\GCCFOR~2.201\rx-elf\rx-elf/rx-elf/lib\libstdc++.a(bad_cast.o)
 .comment       0x00000000       0x2e C:\PROGRA~2\GCCFOR~2.201\rx-elf\rx-elf/rx-elf/lib\libstdc++.a(tinfo.o)
 .comment       0x00000000       0x2e C:\PROGRA~2\GCCFOR~2.201\rx-elf\rx-elf/rx-elf/lib\libstdc++.a(new_handler.o)
 .comment       0x00000000       0x2e C:\PROGRA~2\GCCFOR~2.201\rx-elf\rx-elf/rx-elf/lib\libstdc++.a(stdexcept.o)
 .comment       0x00000000       0x2e C:\PROGRA~2\GCCFOR~2.201\rx-elf\rx-elf/rx-elf/lib\libstdc++.a(ios_failure.o)
 .comment       0x00000000       0x2e C:\PROGRA~2\GCCFOR~2.201\rx-elf\rx-elf/rx-elf/lib\libstdc++.a(system_error.o)
 .comment       0x00000000       0x2e C:\PROGRA~2\GCCFOR~2.201\rx-elf\rx-elf/rx-elf/lib\libstdc++.a(future.o)
 .comment       0x00000000       0x2e C:\PROGRA~2\GCCFOR~2.201\rx-elf\rx-elf/rx-elf/lib\libstdc++.a(string-inst.o)
 .comment       0x00000000       0x2e C:\PROGRA~2\GCCFOR~2.201\rx-elf\rx-elf/rx-elf/lib\libstdc++.a(regex.o)
 .comment       0x00000000       0x2e C:\Users\ryota\e2_studio\workspace\umouse\HardwareDebug\libumouse.a(fputs.o)
 .comment       0x00000000       0x2e C:\Users\ryota\e2_studio\workspace\umouse\HardwareDebug\libumouse.a(fwrite.o)
 .comment       0x00000000       0x2e C:\Users\ryota\e2_studio\workspace\umouse\HardwareDebug\libumouse.a(malloc.o)
 .comment       0x00000000       0x2e C:\Users\ryota\e2_studio\workspace\umouse\HardwareDebug\libumouse.a(memcmp.o)
 .comment       0x00000000       0x2e C:\Users\ryota\e2_studio\workspace\umouse\HardwareDebug\libumouse.a(realloc.o)
 .comment       0x00000000       0x2e C:\Users\ryota\e2_studio\workspace\umouse\HardwareDebug\libumouse.a(sprintf.o)
 .comment       0x00000000       0x2e C:\Users\ryota\e2_studio\workspace\umouse\HardwareDebug\libumouse.a(strerror.o)
 .comment       0x00000000       0x2e C:\Users\ryota\e2_studio\workspace\umouse\HardwareDebug\libumouse.a(u_strerr.o)

.sdata          0x00000000        0x0
 .sdata         0x00000000        0x0 ./src/other/reset_program.o
